Component: ARM Compiler 5.06 update 6 (build 750) Tool: armlink [4d35ed]

==============================================================================

Section Cross References

    main.o(.text) refers to misc.o(.text) for NVIC_PriorityGroupConfig
    main.o(.text) refers to delay.o(.text) for delay_init
    main.o(.text) refers to usart.o(.text) for uart_init
    main.o(.text) refers to led.o(.text) for LED_Init
    main.o(.text) refers to lcd.o(.text) for LCD_Init
    main.o(.text) refers to key.o(.text) for KEY_Init
    main.o(.text) refers to timer.o(.text) for TIM3_Int_Init
    main.o(.text) refers to sram.o(.text) for FSMC_SRAM_Init
    main.o(.text) refers to lv_obj.o(.text) for lv_init
    main.o(.text) refers to lv_port_disp.o(.text) for lv_port_disp_init
    main.o(.text) refers to lv_port_indev.o(.text) for lv_port_indev_init
    main.o(.text) refers to lv_demo_keypad_encoder.o(.text) for lv_demo_keypad_encoder
    main.o(.text) refers to lv_task.o(.text) for lv_task_handler
    main.o(.text) refers to touch.o(.data) for tp_dev
    system_stm32f4xx.o(.text) refers to system_stm32f4xx.o(.data) for SystemCoreClock
    led.o(.text) refers to stm32f4xx_rcc.o(.text) for RCC_AHB1PeriphClockCmd
    led.o(.text) refers to stm32f4xx_gpio.o(.text) for GPIO_Init
    lcd.o(.text) refers to _printf_percent.o(.ARM.Collect$$_printf_percent$$00000000) for _printf_percent
    lcd.o(.text) refers to _printf_x.o(.ARM.Collect$$_printf_percent$$0000000C) for _printf_x
    lcd.o(.text) refers to _printf_hex_int.o(.text) for _printf_longlong_hex
    lcd.o(.text) refers to delay.o(.text) for delay_us
    lcd.o(.text) refers to lcd.o(.bss) for lcddev
    lcd.o(.text) refers to lcd.o(.data) for POINT_COLOR
    lcd.o(.text) refers to dflt_clz.o(x$fpl$dfltu) for __aeabi_ui2d
    lcd.o(.text) refers to dmul.o(x$fpl$dmul) for __aeabi_dmul
    lcd.o(.text) refers to dfixu.o(x$fpl$dfixu) for __aeabi_d2uiz
    lcd.o(.text) refers to stm32f4xx_rcc.o(.text) for RCC_AHB1PeriphClockCmd
    lcd.o(.text) refers to stm32f4xx_gpio.o(.text) for GPIO_Init
    lcd.o(.text) refers to stm32f4xx_fsmc.o(.text) for FSMC_NORSRAMInit
    lcd.o(.text) refers to noretval__2printf.o(.text) for __2printf
    lcd.o(.text) refers to lcd.o(.constdata) for asc2_1206
    key.o(.text) refers to stm32f4xx_rcc.o(.text) for RCC_AHB1PeriphClockCmd
    key.o(.text) refers to stm32f4xx_gpio.o(.text) for GPIO_Init
    key.o(.text) refers to delay.o(.text) for delay_ms
    key.o(.text) refers to key.o(.data) for key_up
    myiic.o(.text) refers to stm32f4xx_rcc.o(.text) for RCC_AHB1PeriphClockCmd
    myiic.o(.text) refers to stm32f4xx_gpio.o(.text) for GPIO_Init
    myiic.o(.text) refers to delay.o(.text) for delay_us
    24cxx.o(.text) refers to myiic.o(.text) for IIC_Init
    24cxx.o(.text) refers to delay.o(.text) for delay_ms
    ctiic.o(.text) refers to delay.o(.text) for delay_us
    ctiic.o(.text) refers to stm32f4xx_rcc.o(.text) for RCC_AHB1PeriphClockCmd
    ctiic.o(.text) refers to stm32f4xx_gpio.o(.text) for GPIO_Init
    gt9147.o(.text) refers to _printf_percent.o(.ARM.Collect$$_printf_percent$$00000000) for _printf_percent
    gt9147.o(.text) refers to _printf_s.o(.ARM.Collect$$_printf_percent$$00000014) for _printf_s
    gt9147.o(.text) refers to _printf_str.o(.text) for _printf_str
    gt9147.o(.text) refers to _printf_d.o(.ARM.Collect$$_printf_percent$$00000009) for _printf_d
    gt9147.o(.text) refers to _printf_dec.o(.text) for _printf_int_dec
    gt9147.o(.text) refers to ctiic.o(.text) for CT_IIC_Start
    gt9147.o(.text) refers to stm32f4xx_rcc.o(.text) for RCC_AHB1PeriphClockCmd
    gt9147.o(.text) refers to stm32f4xx_gpio.o(.text) for GPIO_Init
    gt9147.o(.text) refers to delay.o(.text) for delay_ms
    gt9147.o(.text) refers to noretval__2printf.o(.text) for __2printf
    gt9147.o(.text) refers to strcmpv7m.o(.text) for strcmp
    gt9147.o(.text) refers to gt9147.o(.constdata) for GT9147_CFG_TBL
    gt9147.o(.text) refers to gt9147.o(.data) for t
    gt9147.o(.text) refers to touch.o(.data) for tp_dev
    gt9147.o(.text) refers to lcd.o(.bss) for lcddev
    ott2001a.o(.text) refers to _printf_percent.o(.ARM.Collect$$_printf_percent$$00000000) for _printf_percent
    ott2001a.o(.text) refers to _printf_x.o(.ARM.Collect$$_printf_percent$$0000000C) for _printf_x
    ott2001a.o(.text) refers to _printf_hex_int.o(.text) for _printf_longlong_hex
    ott2001a.o(.text) refers to ctiic.o(.text) for CT_IIC_Start
    ott2001a.o(.text) refers to stm32f4xx_rcc.o(.text) for RCC_AHB1PeriphClockCmd
    ott2001a.o(.text) refers to stm32f4xx_gpio.o(.text) for GPIO_Init
    ott2001a.o(.text) refers to delay.o(.text) for delay_ms
    ott2001a.o(.text) refers to noretval__2printf.o(.text) for __2printf
    ott2001a.o(.text) refers to dflt_clz.o(x$fpl$dflt) for __aeabi_i2d
    ott2001a.o(.text) refers to dmul.o(x$fpl$dmul) for __aeabi_dmul
    ott2001a.o(.text) refers to dfixu.o(x$fpl$dfixu) for __aeabi_d2uiz
    ott2001a.o(.text) refers to daddsub_clz.o(x$fpl$drsb) for __aeabi_drsub
    ott2001a.o(.text) refers to ott2001a.o(.data) for t
    ott2001a.o(.text) refers to touch.o(.data) for tp_dev
    ott2001a.o(.text) refers to ott2001a.o(.constdata) for OTT_TPX_TBL
    ft5206.o(.text) refers to _printf_percent.o(.ARM.Collect$$_printf_percent$$00000000) for _printf_percent
    ft5206.o(.text) refers to _printf_x.o(.ARM.Collect$$_printf_percent$$0000000C) for _printf_x
    ft5206.o(.text) refers to _printf_hex_int.o(.text) for _printf_longlong_hex
    ft5206.o(.text) refers to ctiic.o(.text) for CT_IIC_Start
    ft5206.o(.text) refers to stm32f4xx_rcc.o(.text) for RCC_AHB1PeriphClockCmd
    ft5206.o(.text) refers to stm32f4xx_gpio.o(.text) for GPIO_Init
    ft5206.o(.text) refers to delay.o(.text) for delay_ms
    ft5206.o(.text) refers to noretval__2printf.o(.text) for __2printf
    ft5206.o(.text) refers to ft5206.o(.data) for t
    ft5206.o(.text) refers to touch.o(.data) for tp_dev
    ft5206.o(.text) refers to ft5206.o(.constdata) for FT5206_TPX_TBL
    touch.o(.text) refers to delay.o(.text) for delay_us
    touch.o(.text) refers to lcd.o(.text) for LCD_DrawLine
    touch.o(.text) refers to 24cxx.o(.text) for AT24CXX_WriteLenByte
    touch.o(.text) refers to touch.o(.data) for CMD_RDX
    touch.o(.text) refers to lcd.o(.data) for POINT_COLOR
    touch.o(.text) refers to dflt_clz.o(x$fpl$dfltu) for __aeabi_ui2d
    touch.o(.text) refers to sqrt.o(i.__hardfp_sqrt) for __hardfp_sqrt
    touch.o(.text) refers to dfixu.o(x$fpl$dfixu) for __aeabi_d2uiz
    touch.o(.text) refers to lcd.o(.bss) for lcddev
    touch.o(.text) refers to touch.o(.constdata) for TP_REMIND_MSG_TBL
    touch.o(.text) refers to f2d.o(x$fpl$f2d) for __aeabi_f2d
    touch.o(.text) refers to dleqf.o(x$fpl$dleqf) for __aeabi_cdcmple
    touch.o(.text) refers to drleqf.o(x$fpl$drleqf) for __aeabi_cdrcmple
    touch.o(.text) refers to dmul.o(x$fpl$dmul) for __aeabi_dmul
    touch.o(.text) refers to gt9147.o(.text) for GT9147_Init
    touch.o(.text) refers to ott2001a.o(.text) for OTT2001A_Init
    touch.o(.text) refers to ft5206.o(.text) for FT5206_Init
    touch.o(.text) refers to stm32f4xx_rcc.o(.text) for RCC_AHB1PeriphClockCmd
    touch.o(.text) refers to stm32f4xx_gpio.o(.text) for GPIO_Init
    touch.o(.constdata) refers to touch.o(.conststring) for .conststring
    touch.o(.data) refers to touch.o(.text) for TP_Init
    timer.o(.text) refers to stm32f4xx_rcc.o(.text) for RCC_APB1PeriphClockCmd
    timer.o(.text) refers to stm32f4xx_tim.o(.text) for TIM_TimeBaseInit
    timer.o(.text) refers to misc.o(.text) for NVIC_Init
    timer.o(.text) refers to lv_hal_tick.o(.text) for lv_tick_inc
    sram.o(.text) refers to stm32f4xx_rcc.o(.text) for RCC_AHB1PeriphClockCmd
    sram.o(.text) refers to stm32f4xx_gpio.o(.text) for GPIO_Init
    sram.o(.text) refers to stm32f4xx_fsmc.o(.text) for FSMC_NORSRAMInit
    delay.o(.text) refers to misc.o(.text) for SysTick_CLKSourceConfig
    delay.o(.text) refers to delay.o(.data) for fac_us
    usart.o(.rev16_text) refers (Special) to use_no_semi_2.o(.text) for __use_no_semihosting
    usart.o(.revsh_text) refers (Special) to use_no_semi_2.o(.text) for __use_no_semihosting
    usart.o(.text) refers (Special) to use_no_semi_2.o(.text) for __use_no_semihosting
    usart.o(.text) refers to stm32f4xx_rcc.o(.text) for RCC_AHB1PeriphClockCmd
    usart.o(.text) refers to stm32f4xx_gpio.o(.text) for GPIO_PinAFConfig
    usart.o(.text) refers to stm32f4xx_usart.o(.text) for USART_Init
    usart.o(.text) refers to misc.o(.text) for NVIC_Init
    usart.o(.text) refers to usart.o(.data) for USART_RX_STA
    usart.o(.text) refers to usart.o(.bss) for USART_RX_BUF
    usart.o(.bss) refers (Special) to use_no_semi_2.o(.text) for __use_no_semihosting
    usart.o(.data) refers (Special) to use_no_semi_2.o(.text) for __use_no_semihosting
    startup_stm32f40_41xxx.o(STACK) refers (Special) to heapauxi.o(.text) for __use_two_region_memory
    startup_stm32f40_41xxx.o(HEAP) refers (Special) to heapauxi.o(.text) for __use_two_region_memory
    startup_stm32f40_41xxx.o(RESET) refers (Special) to heapauxi.o(.text) for __use_two_region_memory
    startup_stm32f40_41xxx.o(RESET) refers to startup_stm32f40_41xxx.o(STACK) for __initial_sp
    startup_stm32f40_41xxx.o(RESET) refers to startup_stm32f40_41xxx.o(.text) for Reset_Handler
    startup_stm32f40_41xxx.o(RESET) refers to stm32f4xx_it.o(.text) for NMI_Handler
    startup_stm32f40_41xxx.o(RESET) refers to timer.o(.text) for TIM3_IRQHandler
    startup_stm32f40_41xxx.o(RESET) refers to usart.o(.text) for USART1_IRQHandler
    startup_stm32f40_41xxx.o(.text) refers (Special) to heapauxi.o(.text) for __use_two_region_memory
    startup_stm32f40_41xxx.o(.text) refers to system_stm32f4xx.o(.text) for SystemInit
    startup_stm32f40_41xxx.o(.text) refers to __main.o(!!!main) for __main
    startup_stm32f40_41xxx.o(.text) refers to startup_stm32f40_41xxx.o(HEAP) for Heap_Mem
    startup_stm32f40_41xxx.o(.text) refers to startup_stm32f40_41xxx.o(STACK) for Stack_Mem
    stm32f4xx_gpio.o(.text) refers to stm32f4xx_rcc.o(.text) for RCC_AHB1PeriphResetCmd
    stm32f4xx_fsmc.o(.text) refers to stm32f4xx_fsmc.o(.constdata) for FSMC_DefaultTimingStruct
    stm32f4xx_rcc.o(.text) refers to stm32f4xx_rcc.o(.data) for APBAHBPrescTable
    stm32f4xx_syscfg.o(.text) refers to stm32f4xx_rcc.o(.text) for RCC_APB2PeriphResetCmd
    stm32f4xx_usart.o(.text) refers to stm32f4xx_rcc.o(.text) for RCC_APB2PeriphResetCmd
    stm32f4xx_tim.o(.text) refers to stm32f4xx_rcc.o(.text) for RCC_APB2PeriphResetCmd
    lv_disp.o(.text) refers to lv_hal_disp.o(.text) for lv_disp_get_default
    lv_disp.o(.text) refers to lv_obj.o(.text) for lv_obj_get_disp
    lv_disp.o(.text) refers to lv_ll.o(.text) for _lv_ll_chg_list
    lv_disp.o(.text) refers to lv_area.o(.text) for lv_area_set
    lv_disp.o(.text) refers to lv_refr.o(.text) for _lv_inv_area
    lv_disp.o(.text) refers to lv_style.o(.text) for lv_style_remove_prop
    lv_disp.o(.text) refers to lv_anim.o(.text) for lv_anim_del
    lv_disp.o(.text) refers to lv_hal_tick.o(.text) for lv_tick_elaps
    lv_group.o(.text) refers to lv_ll.o(.text) for _lv_ll_init
    lv_group.o(.text) refers to lv_debug.o(.text) for lv_debug_check_null
    lv_group.o(.text) refers to lv_obj.o(.text) for lv_obj_invalidate
    lv_group.o(.text) refers to lv_mem.o(.text) for lv_mem_free
    lv_group.o(.text) refers to lv_gc.o(.bss) for _lv_group_ll
    lv_indev.o(.text) refers to lv_hal_indev.o(.text) for lv_indev_get_next
    lv_indev.o(.text) refers to lv_obj.o(.text) for lv_obj_get_parent
    lv_indev.o(.text) refers to lv_indev.o(.data) for indev_act
    lv_indev.o(.text) refers to lv_hal_disp.o(.text) for lv_disp_get_inv_buf_size
    lv_indev.o(.text) refers to lv_group.o(.text) for lv_group_focus_obj
    lv_indev.o(.text) refers to lv_ll.o(.text) for _lv_ll_get_head
    lv_indev.o(.text) refers to lv_disp.o(.text) for lv_disp_get_layer_sys
    lv_indev.o(.text) refers to lv_hal_tick.o(.text) for lv_tick_get
    lv_obj.o(.text) refers to lv_debug.o(.text) for lv_debug_check_null
    lv_obj.o(.text) refers to lv_style.o(.text) for _lv_style_list_get_ptr
    lv_obj.o(.text) refers to lv_theme.o(.text) for lv_theme_get_font_normal
    lv_obj.o(.text) refers to lv_anim.o(.constdata) for lv_anim_path_def
    lv_obj.o(.text) refers to lv_font_montserrat_14.o(.data) for lv_font_montserrat_14
    lv_obj.o(.text) refers to lv_ll.o(.text) for _lv_ll_get_head
    lv_obj.o(.text) refers to lv_disp.o(.text) for lv_disp_get_scr_act
    lv_obj.o(.text) refers to lv_area.o(.text) for _lv_area_intersect
    lv_obj.o(.text) refers to lv_refr.o(.text) for _lv_inv_area
    lv_obj.o(.text) refers to lv_gc.o(.bss) for _lv_disp_ll
    lv_obj.o(.text) refers to lv_anim.o(.text) for lv_anim_del
    lv_obj.o(.text) refers to lv_mem.o(.text) for lv_mem_free
    lv_obj.o(.text) refers to lv_task.o(.text) for _lv_task_core_init
    lv_obj.o(.text) refers to lv_group.o(.text) for _lv_group_init
    lv_obj.o(.text) refers to lv_theme_material.o(.text) for lv_theme_material_init
    lv_obj.o(.text) refers to lv_indev.o(.text) for _lv_indev_init
    lv_obj.o(.text) refers to lv_img_decoder.o(.text) for _lv_img_decoder_init
    lv_obj.o(.text) refers to lv_img_cache.o(.text) for lv_img_cache_set_size
    lv_obj.o(.text) refers to lv_gc.o(.text) for _lv_gc_clear_roots
    lv_obj.o(.text) refers to lv_hal_disp.o(.text) for lv_disp_set_default
    lv_obj.o(.text) refers to lv_obj.o(.constdata) for .constdata
    lv_obj.o(.text) refers to lv_obj.o(.data) for lv_initialized
    lv_obj.o(.text) refers to lv_draw_img.o(.text) for lv_img_src_get_type
    lv_obj.o(.text) refers to lv_draw_rect.o(.text) for lv_draw_rect_dsc_init
    lv_obj.o(.text) refers to lv_draw_mask.o(.text) for lv_draw_mask_radius_init
    lv_obj.o(.text) refers to memcmp.o(.text) for memcmp
    lv_obj.o(.text) refers to lv_txt.o(.text) for _lv_txt_get_size
    lv_obj.o(.text) refers to lv_hal_indev.o(.text) for lv_indev_get_next
    lv_obj.o(.text) refers to lv_async.o(.text) for lv_async_call
    lv_obj.o(.text) refers to strcmpv7m.o(.text) for strcmp
    lv_refr.o(.text) refers to lv_hal_disp.o(.text) for lv_disp_get_buf
    lv_refr.o(.text) refers to lv_obj.o(.text) for lv_obj_get_coords
    lv_refr.o(.text) refers to lv_area.o(.text) for _lv_area_intersect
    lv_refr.o(.text) refers to lv_ll.o(.text) for _lv_ll_get_tail
    lv_refr.o(.text) refers to lv_disp.o(.text) for lv_disp_get_scr_act
    lv_refr.o(.text) refers to lv_draw_img.o(.text) for lv_draw_img_dsc_init
    lv_refr.o(.text) refers to lv_img_decoder.o(.text) for lv_img_decoder_get_info
    lv_refr.o(.text) refers to lv_draw_rect.o(.text) for lv_draw_rect_dsc_init
    lv_refr.o(.text) refers to lv_refr.o(.data) for disp_refr
    lv_refr.o(.text) refers to lv_hal_tick.o(.text) for lv_tick_get
    lv_refr.o(.text) refers to lv_task.o(.text) for lv_task_set_prio
    lv_refr.o(.text) refers to lv_mem.o(.text) for _lv_mem_buf_get
    lv_refr.o(.text) refers to lv_font_fmt_txt.o(.text) for _lv_font_clean_up_fmt_txt
    lv_refr.o(.text) refers to lv_anim.o(.text) for lv_anim_refr_now
    lv_style.o(.text) refers to lv_mem.o(.text) for _lv_memset_00
    lv_style.o(.text) refers to lv_debug.o(.text) for lv_debug_check_null
    lv_draw_arc.o(.text) refers to lv_math.o(.text) for _lv_trigo_sin
    lv_draw_arc.o(.text) refers to lv_area.o(.text) for _lv_area_intersect
    lv_draw_arc.o(.text) refers to lv_draw_rect.o(.text) for lv_draw_rect
    lv_draw_arc.o(.text) refers to lv_draw_mask.o(.text) for lv_draw_mask_angle_init
    lv_draw_blend.o(.text) refers to lv_color.o(.text) for lv_color_fill
    lv_draw_blend.o(.text) refers to lv_refr.o(.text) for _lv_refr_get_disp_refreshing
    lv_draw_blend.o(.text) refers to lv_hal_disp.o(.text) for lv_disp_get_buf
    lv_draw_blend.o(.text) refers to lv_area.o(.text) for _lv_area_intersect
    lv_draw_blend.o(.text) refers to lv_mem.o(.text) for _lv_memcpy
    lv_draw_img.o(.text) refers to lv_img_buf.o(.text) for lv_img_buf_get_px_color
    lv_draw_img.o(.text) refers to lv_mem.o(.text) for _lv_memset_00
    lv_draw_img.o(.text) refers to lv_draw_rect.o(.text) for lv_draw_rect_dsc_init
    lv_draw_img.o(.text) refers to lv_draw_label.o(.text) for lv_draw_label_dsc_init
    lv_draw_img.o(.text) refers to lv_refr.o(.text) for _lv_refr_get_disp_refreshing
    lv_draw_img.o(.text) refers to lv_hal_disp.o(.text) for lv_disp_get_buf
    lv_draw_img.o(.text) refers to lv_draw_mask.o(.text) for lv_draw_mask_get_cnt
    lv_draw_img.o(.text) refers to lv_draw_blend.o(.text) for _lv_blend_map
    lv_draw_img.o(.text) refers to lv_area.o(.text) for lv_area_get_size
    lv_draw_img.o(.text) refers to lv_draw_img.o(.constdata) for .constdata
    lv_draw_img.o(.text) refers to lv_img_cache.o(.text) for _lv_img_cache_open
    lv_draw_img.o(.text) refers to lv_img_decoder.o(.text) for lv_img_decoder_read_line
    lv_draw_label.o(.text) refers to lv_mem.o(.text) for _lv_memset_00
    lv_draw_label.o(.text) refers to lv_draw_mask.o(.text) for lv_draw_mask_get_cnt
    lv_draw_label.o(.text) refers to lv_draw_blend.o(.text) for _lv_blend_fill
    lv_draw_label.o(.text) refers to lv_font_montserrat_14.o(.data) for lv_font_montserrat_14
    lv_draw_label.o(.text) refers to lv_draw_label.o(.constdata) for .constdata
    lv_draw_label.o(.text) refers to lv_draw_label.o(.data) for prev_opa
    lv_draw_label.o(.text) refers to lv_draw_label.o(.bss) for opa_table
    lv_draw_label.o(.text) refers to lv_refr.o(.text) for _lv_refr_get_disp_refreshing
    lv_draw_label.o(.text) refers to lv_hal_disp.o(.text) for lv_disp_get_buf
    lv_draw_label.o(.text) refers to lv_font.o(.text) for lv_font_get_glyph_dsc
    lv_draw_label.o(.text) refers to lv_area.o(.text) for _lv_area_intersect
    lv_draw_label.o(.text) refers to lv_txt.o(.text) for _lv_txt_get_size
    lv_draw_label.o(.text) refers to lv_draw_line.o(.text) for lv_draw_line_dsc_init
    lv_draw_label.o(.text) refers to lv_draw_rect.o(.text) for lv_draw_rect_dsc_init
    lv_draw_label.o(.text) refers to lv_txt.o(.data) for _lv_txt_encoded_get_char_id
    lv_draw_line.o(.text) refers to lv_mem.o(.text) for _lv_memset_00
    lv_draw_line.o(.text) refers to lv_area.o(.text) for _lv_area_intersect
    lv_draw_line.o(.text) refers to lv_draw_mask.o(.text) for lv_draw_mask_line_points_init
    lv_draw_line.o(.text) refers to lv_refr.o(.text) for _lv_refr_get_disp_refreshing
    lv_draw_line.o(.text) refers to lv_hal_disp.o(.text) for lv_disp_get_buf
    lv_draw_line.o(.text) refers to lv_draw_blend.o(.text) for _lv_blend_fill
    lv_draw_line.o(.text) refers to lv_draw_line.o(.constdata) for wcorr
    lv_draw_line.o(.text) refers to lv_draw_rect.o(.text) for lv_draw_rect_dsc_init
    lv_draw_mask.o(.text) refers to lv_mem.o(.text) for _lv_memset_00
    lv_draw_mask.o(.text) refers to lv_gc.o(.bss) for _lv_draw_mask_list
    lv_draw_mask.o(.text) refers to lv_math.o(.text) for _lv_trigo_sin
    lv_draw_mask.o(.text) refers to lv_debug.o(.text) for lv_debug_log_error
    lv_draw_rect.o(.text) refers to lv_mem.o(.text) for _lv_memset_00
    lv_draw_rect.o(.text) refers to lv_draw_mask.o(.text) for lv_draw_mask_get_cnt
    lv_draw_rect.o(.text) refers to lv_refr.o(.text) for _lv_refr_get_disp_refreshing
    lv_draw_rect.o(.text) refers to lv_hal_disp.o(.text) for lv_disp_get_buf
    lv_draw_rect.o(.text) refers to lv_area.o(.text) for _lv_area_intersect
    lv_draw_rect.o(.text) refers to lv_draw_blend.o(.text) for _lv_blend_fill
    lv_draw_rect.o(.text) refers to lv_draw_rect.o(.constdata) for .constdata
    lv_draw_rect.o(.text) refers to lv_font_montserrat_14.o(.data) for lv_font_montserrat_14
    lv_draw_rect.o(.text) refers to lv_txt.o(.text) for _lv_txt_get_size
    lv_draw_rect.o(.text) refers to lv_draw_label.o(.text) for lv_draw_label_dsc_init
    lv_draw_rect.o(.text) refers to lv_draw_img.o(.text) for lv_img_src_get_type
    lv_draw_rect.o(.text) refers to lv_img_decoder.o(.text) for lv_img_decoder_get_info
    lv_draw_triangle.o(.text) refers to lv_area.o(.text) for _lv_area_intersect
    lv_draw_triangle.o(.text) refers to lv_mem.o(.text) for _lv_mem_buf_get
    lv_draw_triangle.o(.text) refers to lv_draw_mask.o(.text) for lv_draw_mask_line_points_init
    lv_draw_triangle.o(.text) refers to lv_draw_rect.o(.text) for lv_draw_rect
    lv_draw_triangle.o(.text) refers to lv_draw_triangle.o(.constdata) for .constdata
    lv_img_buf.o(.text) refers to lv_draw_img.o(.text) for lv_img_cf_get_px_size
    lv_img_buf.o(.text) refers to lv_mem.o(.text) for lv_mem_alloc
    lv_img_buf.o(.text) refers to lv_math.o(.text) for _lv_trigo_sin
    lv_img_cache.o(.text) refers to lv_draw_img.o(.text) for lv_img_src_get_type
    lv_img_cache.o(.text) refers to strcmpv7m.o(.text) for strcmp
    lv_img_cache.o(.text) refers to lv_img_decoder.o(.text) for lv_img_decoder_close
    lv_img_cache.o(.text) refers to lv_hal_tick.o(.text) for lv_tick_get
    lv_img_cache.o(.text) refers to lv_mem.o(.text) for _lv_memset_00
    lv_img_cache.o(.text) refers to lv_debug.o(.text) for lv_debug_check_null
    lv_img_cache.o(.text) refers to lv_img_cache.o(.data) for entry_cnt
    lv_img_cache.o(.text) refers to lv_gc.o(.data) for _lv_img_cache_array
    lv_img_decoder.o(.text) refers to lv_mem.o(.text) for lv_mem_free
    lv_img_decoder.o(.text) refers to lv_draw_img.o(.text) for lv_img_cf_get_px_size
    lv_img_decoder.o(.text) refers to lv_debug.o(.text) for lv_debug_check_null
    lv_img_decoder.o(.text) refers to lv_ll.o(.text) for _lv_ll_ins_head
    lv_img_decoder.o(.text) refers to strlen.o(.text) for strlen
    lv_img_decoder.o(.text) refers to strcpy.o(.text) for strcpy
    lv_img_decoder.o(.text) refers to lv_gc.o(.bss) for _lv_img_defoder_ll
    lv_font_fmt_txt.o(.text) refers to lv_mem.o(.text) for _lv_mem_buf_get
    lv_font_fmt_txt.o(.text) refers to lv_utils.o(.text) for _lv_utils_bsearch
    lv_font_fmt_txt.o(.text) refers to lv_font_fmt_txt.o(.data) for rle_state
    lv_font_fmt_txt.o(.text) refers to lv_debug.o(.text) for lv_debug_check_null
    lv_font_montserrat_14.o(.data) refers to lv_font_montserrat_14.o(.constdata) for gylph_bitmap
    lv_font_montserrat_14.o(.data) refers to lv_font_fmt_txt.o(.text) for lv_font_get_glyph_dsc_fmt_txt
    lv_hal_disp.o(.text) refers to lv_mem.o(.text) for _lv_memset_00
    lv_hal_disp.o(.text) refers to lv_ll.o(.text) for _lv_ll_ins_head
    lv_hal_disp.o(.text) refers to lv_debug.o(.text) for lv_debug_check_null
    lv_hal_disp.o(.text) refers to lv_task.o(.text) for lv_task_create
    lv_hal_disp.o(.text) refers to lv_obj.o(.text) for lv_obj_create
    lv_hal_disp.o(.text) refers to rt_memcpy_w.o(.text) for __aeabi_memcpy4
    lv_hal_disp.o(.text) refers to lv_hal_indev.o(.text) for lv_indev_get_next
    lv_hal_disp.o(.text) refers to lv_hal_disp.o(.constdata) for .constdata
    lv_hal_disp.o(.text) refers to lv_gc.o(.bss) for _lv_disp_ll
    lv_hal_disp.o(.text) refers to lv_hal_disp.o(.data) for disp_def
    lv_hal_disp.o(.text) refers to lv_refr.o(.text) for _lv_disp_refr_task
    lv_hal_indev.o(.text) refers to lv_mem.o(.text) for _lv_memset_00
    lv_hal_indev.o(.text) refers to lv_hal_disp.o(.text) for lv_disp_get_default
    lv_hal_indev.o(.text) refers to lv_ll.o(.text) for _lv_ll_ins_head
    lv_hal_indev.o(.text) refers to lv_debug.o(.text) for lv_debug_check_null
    lv_hal_indev.o(.text) refers to lv_task.o(.text) for lv_task_create
    lv_hal_indev.o(.text) refers to rt_memcpy_w.o(.text) for __aeabi_memcpy4
    lv_hal_indev.o(.text) refers to lv_gc.o(.bss) for _lv_indev_ll
    lv_hal_indev.o(.text) refers to lv_indev.o(.text) for _lv_indev_read_task
    lv_hal_tick.o(.text) refers to lv_hal_tick.o(.data) for tick_irq_flag
    lv_anim.o(.text) refers to lv_ll.o(.text) for _lv_ll_get_head
    lv_anim.o(.text) refers to lv_task.o(.text) for lv_task_set_prio
    lv_anim.o(.text) refers to lv_mem.o(.text) for _lv_memcpy
    lv_anim.o(.text) refers to lv_hal_tick.o(.text) for lv_tick_elaps
    lv_anim.o(.text) refers to lv_debug.o(.text) for lv_debug_check_null
    lv_anim.o(.text) refers to lv_math.o(.text) for _lv_bezier3
    lv_anim.o(.text) refers to lv_anim.o(.data) for anim_list_changed
    lv_anim.o(.text) refers to lv_gc.o(.bss) for _lv_anim_ll
    lv_anim.o(.text) refers to lv_anim.o(.constdata) for lv_anim_path_def
    lv_anim.o(.constdata) refers to lv_anim.o(.text) for lv_anim_path_linear
    lv_async.o(.text) refers to lv_mem.o(.text) for lv_mem_free
    lv_async.o(.text) refers to lv_task.o(.text) for lv_task_create
    lv_color.o(.text) refers to lv_color.o(.constdata) for .constdata
    lv_debug.o(.text) refers to lv_mem.o(.text) for lv_mem_test
    lv_debug.o(.text) refers to strlen.o(.text) for strlen
    lv_debug.o(.text) refers to lv_debug.o(.constdata) for hex
    lv_gc.o(.text) refers to lv_mem.o(.text) for _lv_memset_00
    lv_gc.o(.text) refers to lv_gc.o(.bss) for _lv_task_ll
    lv_gc.o(.text) refers to lv_gc.o(.data) for _lv_img_cache_array
    lv_ll.o(.text) refers to lv_mem.o(.text) for lv_mem_alloc
    lv_math.o(.text) refers to lv_math.o(.constdata) for sin0_90_table
    lv_mem.o(.text) refers to lv_mem.o(.bss) for work_mem_int
    lv_mem.o(.text) refers to lv_mem.o(.data) for work_mem
    lv_mem.o(.text) refers to lv_debug.o(.text) for lv_debug_log_error
    lv_mem.o(.text) refers to lv_gc.o(.bss) for _lv_mem_buf
    lv_mem.o(.text) refers to lv_mem.o(.conststring) for .conststring
    lv_mem.o(.data) refers to lv_mem.o(.bss) for mem_buf1_32
    lv_printf.o(.text) refers to lludivv7m.o(.text) for __aeabi_uldivmod
    lv_task.o(.text) refers to lv_ll.o(.text) for _lv_ll_init
    lv_task.o(.text) refers to lv_hal_tick.o(.text) for lv_tick_elaps
    lv_task.o(.text) refers to lv_mem.o(.text) for lv_mem_free
    lv_task.o(.text) refers to lv_debug.o(.text) for lv_debug_check_null
    lv_task.o(.text) refers to lv_task.o(.data) for lv_task_run
    lv_task.o(.text) refers to lv_gc.o(.bss) for _lv_task_ll
    lv_task.o(.text) refers to lv_gc.o(.data) for _lv_task_act
    lv_txt.o(.text) refers to lv_font.o(.text) for lv_font_get_glyph_width
    lv_txt.o(.text) refers to lv_txt.o(.data) for _lv_txt_encoded_next
    lv_txt.o(.text) refers to strlen.o(.text) for strlen
    lv_txt.o(.data) refers to lv_txt.o(.text) for lv_txt_utf8_size
    lv_theme.o(.text) refers to lv_obj.o(.text) for lv_obj_clean_style_list
    lv_theme.o(.text) refers to lv_mem.o(.text) for _lv_memset_00
    lv_theme.o(.text) refers to lv_theme.o(.data) for act_theme
    lv_theme_empty.o(.text) refers to lv_obj.o(.text) for lv_obj_clean_style_list
    lv_theme_empty.o(.text) refers to lv_style.o(.text) for lv_style_reset
    lv_theme_empty.o(.text) refers to lv_mem.o(.text) for lv_mem_alloc
    lv_theme_empty.o(.text) refers to lv_theme_empty.o(.data) for styles
    lv_theme_empty.o(.text) refers to lv_gc.o(.data) for _lv_theme_empty_styles
    lv_theme_empty.o(.text) refers to lv_theme_empty.o(.bss) for theme
    lv_theme_material.o(.text) refers to lv_style.o(.text) for lv_style_reset
    lv_theme_material.o(.text) refers to lv_hal_disp.o(.text) for lv_disp_get_dpi
    lv_theme_material.o(.text) refers to lv_theme_material.o(.data) for inited
    lv_theme_material.o(.text) refers to lv_theme_material.o(.bss) for theme
    lv_theme_material.o(.text) refers to lv_color.o(.text) for lv_color_darken
    lv_theme_material.o(.text) refers to lv_theme_material.o(.constdata) for .constdata
    lv_theme_material.o(.text) refers to lv_obj.o(.text) for lv_obj_get_style_list
    lv_theme_material.o(.text) refers to lv_mem.o(.text) for lv_mem_alloc
    lv_theme_material.o(.text) refers to lv_gc.o(.data) for _lv_theme_material_styles
    lv_theme_mono.o(.text) refers to lv_style.o(.text) for lv_style_reset
    lv_theme_mono.o(.text) refers to lv_theme_mono.o(.data) for inited
    lv_theme_mono.o(.text) refers to lv_theme_mono.o(.constdata) for .constdata
    lv_theme_mono.o(.text) refers to lv_theme_mono.o(.bss) for theme
    lv_theme_mono.o(.text) refers to lv_font_montserrat_14.o(.data) for lv_font_montserrat_14
    lv_theme_mono.o(.text) refers to lv_obj.o(.text) for lv_obj_get_style_list
    lv_theme_mono.o(.text) refers to lv_mem.o(.text) for lv_mem_alloc
    lv_theme_mono.o(.text) refers to lv_gc.o(.data) for _lv_theme_mono_styles
    lv_theme_template.o(.text) refers to lv_style.o(.text) for lv_style_reset
    lv_theme_template.o(.text) refers to lv_color.o(.text) for lv_color_darken
    lv_theme_template.o(.text) refers to lv_obj.o(.text) for lv_obj_get_style_list
    lv_theme_template.o(.text) refers to lv_theme_template.o(.data) for inited
    lv_theme_template.o(.text) refers to lv_theme_template.o(.bss) for theme
    lv_theme_template.o(.text) refers to lv_theme_template.o(.constdata) for .constdata
    lv_theme_template.o(.text) refers to lv_mem.o(.text) for lv_mem_alloc
    lv_arc.o(.text) refers to lv_obj.o(.text) for lv_obj_is_visible
    lv_arc.o(.text) refers to lv_math.o(.text) for _lv_trigo_sin
    lv_arc.o(.text) refers to lv_debug.o(.text) for lv_debug_check_null
    lv_arc.o(.text) refers to lv_draw_rect.o(.text) for lv_draw_rect_dsc_init
    lv_arc.o(.text) refers to lv_draw_line.o(.text) for lv_draw_line_dsc_init
    lv_arc.o(.text) refers to lv_draw_arc.o(.text) for lv_draw_arc
    lv_arc.o(.text) refers to lv_indev.o(.text) for lv_indev_get_act
    lv_arc.o(.text) refers to lv_hal_tick.o(.text) for lv_tick_get
    lv_arc.o(.text) refers to lv_group.o(.text) for lv_group_get_editing
    lv_arc.o(.text) refers to lv_style.o(.text) for lv_style_list_init
    lv_arc.o(.text) refers to lv_theme.o(.text) for lv_theme_apply
    lv_arc.o(.text) refers to lv_arc.o(.data) for ancestor_signal
    lv_bar.o(.text) refers to lv_obj.o(.text) for lv_obj_get_ext_attr
    lv_bar.o(.text) refers to lv_anim.o(.text) for lv_anim_del
    lv_bar.o(.text) refers to lv_debug.o(.text) for lv_debug_check_null
    lv_bar.o(.text) refers to lv_draw_rect.o(.text) for lv_draw_rect_dsc_init
    lv_bar.o(.text) refers to lv_draw_mask.o(.text) for lv_draw_mask_radius_init
    lv_bar.o(.text) refers to lv_style.o(.text) for lv_style_list_init
    lv_bar.o(.text) refers to lv_theme.o(.text) for lv_theme_apply
    lv_bar.o(.text) refers to lv_bar.o(.data) for ancestor_design_f
    lv_btn.o(.text) refers to lv_debug.o(.text) for lv_debug_check_null
    lv_btn.o(.text) refers to lv_obj.o(.text) for lv_obj_clear_state
    lv_btn.o(.text) refers to lv_indev.o(.text) for lv_indev_is_dragging
    lv_btn.o(.text) refers to lv_cont.o(.text) for lv_cont_create
    lv_btn.o(.text) refers to lv_theme.o(.text) for lv_theme_apply
    lv_btn.o(.text) refers to lv_btn.o(.data) for ancestor_design
    lv_btnmatrix.o(.text) refers to strcmpv7m.o(.text) for strcmp
    lv_btnmatrix.o(.text) refers to strlen.o(.text) for strlen
    lv_btnmatrix.o(.text) refers to lv_obj.o(.text) for lv_obj_get_ext_attr
    lv_btnmatrix.o(.text) refers to lv_mem.o(.text) for lv_mem_free
    lv_btnmatrix.o(.text) refers to lv_debug.o(.text) for lv_debug_check_null
    lv_btnmatrix.o(.text) refers to lv_area.o(.text) for lv_area_set
    lv_btnmatrix.o(.text) refers to lv_draw_rect.o(.text) for lv_draw_rect_dsc_init
    lv_btnmatrix.o(.text) refers to lv_draw_label.o(.text) for lv_draw_label_dsc_init
    lv_btnmatrix.o(.text) refers to lv_txt.o(.text) for _lv_txt_get_size
    lv_btnmatrix.o(.text) refers to lv_btnmatrix.o(.data) for ancestor_design_f
    lv_btnmatrix.o(.text) refers to lv_indev.o(.text) for lv_indev_get_act
    lv_btnmatrix.o(.text) refers to lv_group.o(.text) for lv_group_get_editing
    lv_btnmatrix.o(.text) refers to lv_hal_indev.o(.text) for lv_indev_get_next
    lv_btnmatrix.o(.text) refers to lv_style.o(.text) for lv_style_list_init
    lv_btnmatrix.o(.text) refers to lv_theme.o(.text) for lv_theme_apply
    lv_btnmatrix.o(.data) refers to lv_btnmatrix.o(.conststring) for .conststring
    lv_calendar.o(.text) refers to lv_obj.o(.text) for lv_obj_get_ext_attr
    lv_calendar.o(.text) refers to lv_draw_rect.o(.text) for lv_draw_rect_dsc_init
    lv_calendar.o(.text) refers to lv_draw_label.o(.text) for lv_draw_label_dsc_init
    lv_calendar.o(.text) refers to lv_utils.o(.text) for _lv_utils_num_to_str
    lv_calendar.o(.text) refers to strcpy.o(.text) for strcpy
    lv_calendar.o(.text) refers to lv_txt.o(.text) for _lv_txt_get_width
    lv_calendar.o(.text) refers to lv_calendar.o(.data) for day_name
    lv_calendar.o(.text) refers to lv_area.o(.text) for _lv_area_is_point_on
    lv_calendar.o(.text) refers to lv_debug.o(.text) for lv_debug_check_null
    lv_calendar.o(.text) refers to lv_indev.o(.text) for lv_indev_get_act
    lv_calendar.o(.text) refers to lv_style.o(.text) for lv_style_list_init
    lv_calendar.o(.text) refers to lv_theme.o(.text) for lv_theme_apply
    lv_calendar.o(.data) refers to lv_calendar.o(.conststring) for .conststring
    lv_canvas.o(.text) refers to lv_img_buf.o(.text) for lv_img_buf_get_px_color
    lv_canvas.o(.text) refers to lv_obj.o(.text) for lv_obj_handle_get_type_signal
    lv_canvas.o(.text) refers to lv_img.o(.text) for lv_img_create
    lv_canvas.o(.text) refers to lv_debug.o(.text) for lv_debug_check_null
    lv_canvas.o(.text) refers to lv_theme.o(.text) for lv_theme_apply
    lv_canvas.o(.text) refers to lv_canvas.o(.data) for fg_opa_save
    lv_canvas.o(.text) refers to lv_canvas.o(.constdata) for .constdata
    lv_canvas.o(.text) refers to lv_draw_img.o(.text) for lv_img_cf_get_px_size
    lv_canvas.o(.text) refers to lv_mem.o(.text) for _lv_memcpy
    lv_canvas.o(.text) refers to lv_hal_disp.o(.text) for lv_disp_buf_init
    lv_canvas.o(.text) refers to lv_refr.o(.text) for _lv_refr_get_disp_refreshing
    lv_canvas.o(.text) refers to lv_draw_rect.o(.text) for lv_draw_rect
    lv_canvas.o(.text) refers to lv_draw_label.o(.text) for lv_draw_label
    lv_canvas.o(.text) refers to lv_img_decoder.o(.text) for lv_img_decoder_get_info
    lv_canvas.o(.text) refers to lv_draw_line.o(.text) for lv_draw_line
    lv_canvas.o(.text) refers to lv_draw_triangle.o(.text) for lv_draw_polygon
    lv_canvas.o(.text) refers to lv_draw_arc.o(.text) for lv_draw_arc
    lv_chart.o(.text) refers to lv_area.o(.text) for _lv_area_intersect
    lv_chart.o(.text) refers to lv_obj.o(.text) for lv_obj_get_ext_attr
    lv_chart.o(.text) refers to lv_ll.o(.text) for _lv_ll_get_len
    lv_chart.o(.text) refers to lv_draw_rect.o(.text) for lv_draw_rect_dsc_init
    lv_chart.o(.text) refers to lv_draw_line.o(.text) for lv_draw_line_dsc_init
    lv_chart.o(.text) refers to lv_draw_mask.o(.text) for lv_draw_mask_fade_init
    lv_chart.o(.text) refers to strncpy.o(.text) for strncpy
    lv_chart.o(.text) refers to lv_draw_label.o(.text) for lv_draw_label_dsc_init
    lv_chart.o(.text) refers to lv_txt.o(.text) for _lv_txt_get_size
    lv_chart.o(.text) refers to lv_debug.o(.text) for lv_debug_check_null
    lv_chart.o(.text) refers to lv_mem.o(.text) for lv_mem_free
    lv_chart.o(.text) refers to lv_style.o(.text) for lv_style_list_init
    lv_chart.o(.text) refers to lv_theme.o(.text) for lv_theme_apply
    lv_chart.o(.text) refers to lv_chart.o(.data) for ancestor_design
    lv_chart.o(.text) refers to rt_memcpy_v6.o(.text) for __aeabi_memcpy
    lv_chart.o(.text) refers to lv_refr.o(.text) for _lv_inv_area
    lv_checkbox.o(.text) refers to lv_debug.o(.text) for lv_debug_check_null
    lv_checkbox.o(.text) refers to lv_obj.o(.text) for lv_obj_get_ext_attr
    lv_checkbox.o(.text) refers to lv_label.o(.text) for lv_label_set_text
    lv_checkbox.o(.text) refers to lv_btn.o(.text) for lv_btn_create
    lv_checkbox.o(.text) refers to lv_cont.o(.text) for lv_cont_set_layout
    lv_checkbox.o(.text) refers to lv_theme.o(.text) for lv_theme_apply
    lv_checkbox.o(.text) refers to lv_checkbox.o(.data) for ancestor_signal
    lv_cont.o(.text) refers to lv_obj.o(.text) for lv_obj_is_protected
    lv_cont.o(.text) refers to lv_ll.o(.text) for _lv_ll_is_empty
    lv_cont.o(.text) refers to lv_debug.o(.text) for lv_debug_check_null
    lv_cont.o(.text) refers to lv_theme.o(.text) for lv_theme_apply
    lv_cont.o(.text) refers to lv_cont.o(.data) for ancestor_signal
    lv_cpicker.o(.text) refers to lv_obj.o(.text) for lv_obj_get_ext_attr
    lv_cpicker.o(.text) refers to lv_math.o(.text) for _lv_trigo_sin
    lv_cpicker.o(.text) refers to lv_debug.o(.text) for lv_debug_check_null
    lv_cpicker.o(.text) refers to lv_color.o(.text) for lv_color_hsv_to_rgb
    lv_cpicker.o(.text) refers to lv_draw_rect.o(.text) for lv_draw_rect_dsc_init
    lv_cpicker.o(.text) refers to lv_draw_line.o(.text) for lv_draw_line_dsc_init
    lv_cpicker.o(.text) refers to lv_draw_mask.o(.text) for lv_draw_mask_radius_init
    lv_cpicker.o(.text) refers to lv_area.o(.text) for _lv_area_is_point_on
    lv_cpicker.o(.text) refers to lv_indev.o(.text) for lv_indev_get_act
    lv_cpicker.o(.text) refers to lv_hal_tick.o(.text) for lv_tick_elaps
    lv_cpicker.o(.text) refers to lv_cpicker.o(.data) for ancestor_signal
    lv_cpicker.o(.text) refers to lv_style.o(.text) for lv_style_list_init
    lv_cpicker.o(.text) refers to lv_theme.o(.text) for lv_theme_apply
    lv_cpicker.o(.text) refers to lv_cpicker.o(.constdata) for .constdata
    lv_dropdown.o(.text) refers to lv_debug.o(.text) for lv_debug_check_null
    lv_dropdown.o(.text) refers to lv_obj.o(.text) for lv_obj_get_ext_attr
    lv_dropdown.o(.text) refers to lv_mem.o(.text) for lv_mem_free
    lv_dropdown.o(.text) refers to strlen.o(.text) for strlen
    lv_dropdown.o(.text) refers to strcpy.o(.text) for strcpy
    lv_dropdown.o(.text) refers to lv_draw_label.o(.text) for lv_draw_label_dsc_init
    lv_dropdown.o(.text) refers to lv_txt.o(.text) for _lv_txt_get_size
    lv_dropdown.o(.text) refers to lv_dropdown.o(.data) for ancestor_design
    lv_dropdown.o(.text) refers to lv_page.o(.text) for lv_page_get_scrollable
    lv_dropdown.o(.text) refers to lv_label.o(.text) for lv_label_get_letter_on
    lv_dropdown.o(.text) refers to lv_indev.o(.text) for lv_indev_get_act
    lv_dropdown.o(.text) refers to lv_group.o(.text) for lv_group_get_editing
    lv_dropdown.o(.text) refers to lv_txt.o(.data) for _lv_txt_encoded_next
    lv_dropdown.o(.text) refers to lv_area.o(.text) for _lv_area_intersect
    lv_dropdown.o(.text) refers to lv_draw_rect.o(.text) for lv_draw_rect_dsc_init
    lv_dropdown.o(.text) refers to lv_style.o(.text) for lv_style_list_copy
    lv_dropdown.o(.text) refers to lv_hal_disp.o(.text) for lv_disp_get_default
    lv_dropdown.o(.text) refers to lv_theme.o(.text) for lv_theme_apply
    lv_dropdown.o(.text) refers to strcat.o(.text) for strcat
    lv_dropdown.o(.text) refers to lv_cont.o(.text) for lv_cont_set_fit4
    lv_gauge.o(.text) refers to lv_debug.o(.text) for lv_debug_check_null
    lv_gauge.o(.text) refers to lv_obj.o(.text) for lv_obj_get_ext_attr
    lv_gauge.o(.text) refers to lv_mem.o(.text) for lv_mem_free
    lv_gauge.o(.text) refers to lv_linemeter.o(.text) for lv_linemeter_set_scale
    lv_gauge.o(.text) refers to lv_draw_line.o(.text) for lv_draw_line_dsc_init
    lv_gauge.o(.text) refers to lv_math.o(.text) for _lv_trigo_sin
    lv_gauge.o(.text) refers to lv_img_decoder.o(.text) for lv_img_decoder_get_info
    lv_gauge.o(.text) refers to lv_draw_img.o(.text) for lv_draw_img_dsc_init
    lv_gauge.o(.text) refers to lv_draw_rect.o(.text) for lv_draw_rect_dsc_init
    lv_gauge.o(.text) refers to lv_draw_label.o(.text) for lv_draw_label_dsc_init
    lv_gauge.o(.text) refers to lv_utils.o(.text) for _lv_utils_num_to_str
    lv_gauge.o(.text) refers to lv_txt.o(.text) for _lv_txt_get_size
    lv_gauge.o(.text) refers to lv_style.o(.text) for lv_style_list_init
    lv_gauge.o(.text) refers to lv_theme.o(.text) for lv_theme_apply
    lv_gauge.o(.text) refers to lv_gauge.o(.data) for ancestor_design
    lv_img.o(.text) refers to lv_debug.o(.text) for lv_debug_check_null
    lv_img.o(.text) refers to lv_obj.o(.text) for lv_obj_get_ext_attr
    lv_img.o(.text) refers to lv_draw_img.o(.text) for lv_img_src_get_type
    lv_img.o(.text) refers to lv_mem.o(.text) for lv_mem_free
    lv_img.o(.text) refers to lv_img_decoder.o(.text) for lv_img_decoder_get_info
    lv_img.o(.text) refers to strlen.o(.text) for strlen
    lv_img.o(.text) refers to strcpy.o(.text) for strcpy
    lv_img.o(.text) refers to lv_txt.o(.text) for _lv_txt_get_size
    lv_img.o(.text) refers to lv_area.o(.text) for _lv_area_is_in
    lv_img.o(.text) refers to lv_img_buf.o(.text) for _lv_img_buf_get_transformed_area
    lv_img.o(.text) refers to lv_draw_rect.o(.text) for lv_draw_rect_dsc_init
    lv_img.o(.text) refers to lv_draw_mask.o(.text) for lv_draw_mask_radius_init
    lv_img.o(.text) refers to lv_draw_label.o(.text) for lv_draw_label_dsc_init
    lv_img.o(.text) refers to lv_theme.o(.text) for lv_theme_apply
    lv_img.o(.text) refers to lv_img.o(.data) for ancestor_signal
    lv_imgbtn.o(.text) refers to lv_obj.o(.text) for lv_obj_get_ext_attr
    lv_imgbtn.o(.text) refers to lv_area.o(.text) for _lv_area_is_in
    lv_imgbtn.o(.text) refers to lv_draw_rect.o(.text) for lv_draw_rect_dsc_init
    lv_imgbtn.o(.text) refers to lv_mem.o(.text) for _lv_mem_buf_get
    lv_imgbtn.o(.text) refers to lv_draw_mask.o(.text) for lv_draw_mask_radius_init
    lv_imgbtn.o(.text) refers to lv_draw_img.o(.text) for lv_img_src_get_type
    lv_imgbtn.o(.text) refers to lv_draw_label.o(.text) for lv_draw_label_dsc_init
    lv_imgbtn.o(.text) refers to strlen.o(.text) for strlen
    lv_imgbtn.o(.text) refers to lv_txt.o(.text) for _lv_txt_get_width
    lv_imgbtn.o(.text) refers to lv_img_decoder.o(.text) for lv_img_decoder_get_info
    lv_imgbtn.o(.text) refers to lv_btn.o(.text) for lv_btn_create
    lv_imgbtn.o(.text) refers to lv_debug.o(.text) for lv_debug_check_null
    lv_imgbtn.o(.text) refers to lv_theme.o(.text) for lv_theme_apply
    lv_imgbtn.o(.text) refers to lv_imgbtn.o(.data) for ancestor_signal
    lv_keyboard.o(.text) refers to lv_debug.o(.text) for lv_debug_check_null
    lv_keyboard.o(.text) refers to lv_obj.o(.text) for lv_obj_get_ext_attr
    lv_keyboard.o(.text) refers to lv_textarea.o(.text) for lv_textarea_set_cursor_hidden
    lv_keyboard.o(.text) refers to lv_btnmatrix.o(.text) for lv_btnmatrix_get_active_btn
    lv_keyboard.o(.text) refers to strcmpv7m.o(.text) for strcmp
    lv_keyboard.o(.text) refers to lv_keyboard.o(.data) for kb_map
    lv_keyboard.o(.text) refers to lv_theme.o(.text) for lv_theme_apply
    lv_keyboard.o(.constdata) refers to lv_keyboard.o(.conststring) for .conststring
    lv_keyboard.o(.data) refers to lv_keyboard.o(.constdata) for default_kb_map_lc
    lv_label.o(.text) refers to lv_obj.o(.text) for lv_obj_get_ext_attr
    lv_label.o(.text) refers to lv_mem.o(.text) for lv_mem_free
    lv_label.o(.text) refers to lv_debug.o(.text) for lv_debug_check_null
    lv_label.o(.text) refers to lv_txt.o(.text) for _lv_txt_get_next_line
    lv_label.o(.text) refers to lv_font.o(.text) for lv_font_get_glyph_width
    lv_label.o(.text) refers to lv_txt.o(.data) for _lv_txt_encoded_prev
    lv_label.o(.text) refers to lv_anim.o(.text) for lv_anim_init
    lv_label.o(.text) refers to strlen.o(.text) for strlen
    lv_label.o(.text) refers to strcpy.o(.text) for strcpy
    lv_label.o(.text) refers to lv_label.o(.data) for ancestor_signal
    lv_label.o(.text) refers to lv_draw_rect.o(.text) for lv_draw_rect_dsc_init
    lv_label.o(.text) refers to lv_area.o(.text) for _lv_area_intersect
    lv_label.o(.text) refers to lv_draw_label.o(.text) for lv_draw_label_dsc_init
    lv_label.o(.text) refers to lv_theme.o(.text) for lv_theme_apply
    lv_label.o(.text) refers to lv_printf.o(.text) for lv_vsnprintf
    lv_led.o(.text) refers to lv_obj.o(.text) for lv_obj_get_ext_attr
    lv_led.o(.text) refers to lv_draw_rect.o(.text) for lv_draw_rect_dsc_init
    lv_led.o(.text) refers to lv_debug.o(.text) for lv_debug_check_null
    lv_led.o(.text) refers to lv_theme.o(.text) for lv_theme_apply
    lv_led.o(.text) refers to lv_led.o(.data) for ancestor_design
    lv_line.o(.text) refers to lv_debug.o(.text) for lv_debug_check_null
    lv_line.o(.text) refers to lv_obj.o(.text) for lv_obj_get_ext_attr
    lv_line.o(.text) refers to lv_draw_line.o(.text) for lv_draw_line_dsc_init
    lv_line.o(.text) refers to lv_theme.o(.text) for lv_theme_apply
    lv_line.o(.text) refers to lv_line.o(.data) for ancestor_signal
    lv_linemeter.o(.text) refers to lv_obj.o(.text) for lv_obj_get_ext_attr
    lv_linemeter.o(.text) refers to lv_draw_line.o(.text) for lv_draw_line_dsc_init
    lv_linemeter.o(.text) refers to lv_math.o(.text) for _lv_trigo_sin
    lv_linemeter.o(.text) refers to lv_area.o(.text) for _lv_area_intersect
    lv_linemeter.o(.text) refers to lv_draw_arc.o(.text) for lv_draw_arc
    lv_linemeter.o(.text) refers to lv_draw_rect.o(.text) for lv_draw_rect_dsc_init
    lv_linemeter.o(.text) refers to lv_debug.o(.text) for lv_debug_check_null
    lv_linemeter.o(.text) refers to lv_theme.o(.text) for lv_theme_apply
    lv_linemeter.o(.text) refers to lv_linemeter.o(.data) for ancestor_signal
    lv_list.o(.text) refers to lv_obj.o(.text) for lv_obj_get_type
    lv_list.o(.text) refers to strcmpv7m.o(.text) for strcmp
    lv_list.o(.text) refers to lv_debug.o(.text) for lv_debug_check_null
    lv_list.o(.text) refers to lv_page.o(.text) for lv_page_get_scrollable
    lv_list.o(.text) refers to lv_label.o(.text) for lv_label_get_text
    lv_list.o(.text) refers to lv_indev.o(.text) for lv_indev_get_act
    lv_list.o(.text) refers to lv_group.o(.text) for lv_group_focus_obj
    lv_list.o(.text) refers to lv_cont.o(.text) for lv_cont_get_layout
    lv_list.o(.text) refers to lv_list.o(.data) for ancestor_btn_signal
    lv_list.o(.text) refers to lv_btn.o(.text) for lv_btn_create
    lv_list.o(.text) refers to lv_theme.o(.text) for lv_theme_apply
    lv_list.o(.text) refers to lv_img.o(.text) for lv_img_create
    lv_list.o(.text) refers to lv_anim.o(.text) for lv_anim_init
    lv_msgbox.o(.text) refers to lv_debug.o(.text) for lv_debug_check_null
    lv_msgbox.o(.text) refers to lv_obj.o(.text) for lv_obj_get_ext_attr
    lv_msgbox.o(.text) refers to lv_anim.o(.text) for lv_anim_init
    lv_msgbox.o(.text) refers to lv_cont.o(.text) for lv_cont_set_fit4
    lv_msgbox.o(.text) refers to lv_btnmatrix.o(.text) for lv_btnmatrix_get_active_btn
    lv_msgbox.o(.text) refers to lv_msgbox.o(.data) for ancestor_signal
    lv_msgbox.o(.text) refers to lv_indev.o(.text) for lv_indev_get_act
    lv_msgbox.o(.text) refers to lv_group.o(.text) for lv_group_get_editing
    lv_msgbox.o(.text) refers to lv_label.o(.text) for lv_label_create
    lv_msgbox.o(.text) refers to lv_hal_disp.o(.text) for lv_disp_get_size_category
    lv_msgbox.o(.text) refers to lv_theme.o(.text) for lv_theme_apply
    lv_objmask.o(.text) refers to lv_obj.o(.text) for lv_obj_get_ext_attr
    lv_objmask.o(.text) refers to lv_ll.o(.text) for _lv_ll_get_len
    lv_objmask.o(.text) refers to lv_mem.o(.text) for _lv_mem_buf_get
    lv_objmask.o(.text) refers to lv_draw_mask.o(.text) for lv_draw_mask_line_points_init
    lv_objmask.o(.text) refers to lv_cont.o(.text) for lv_cont_create
    lv_objmask.o(.text) refers to lv_debug.o(.text) for lv_debug_check_null
    lv_objmask.o(.text) refers to lv_theme.o(.text) for lv_theme_apply
    lv_objmask.o(.text) refers to lv_objmask.o(.data) for ancestor_design
    lv_objmask.o(.text) refers to rt_memcpy_v6.o(.text) for __aeabi_memcpy
    lv_page.o(.text) refers to lv_debug.o(.text) for lv_debug_check_null
    lv_page.o(.text) refers to lv_obj.o(.text) for lv_obj_get_ext_attr
    lv_page.o(.text) refers to lv_area.o(.text) for lv_area_set_width
    lv_page.o(.text) refers to lv_draw_rect.o(.text) for lv_draw_rect_dsc_init
    lv_page.o(.text) refers to lv_anim.o(.text) for lv_anim_init
    lv_page.o(.text) refers to lv_page.o(.data) for ancestor_design
    lv_page.o(.text) refers to lv_cont.o(.text) for lv_cont_get_fit_left
    lv_page.o(.text) refers to lv_indev.o(.text) for lv_indev_get_act
    lv_page.o(.text) refers to lv_group.o(.text) for lv_group_focus_obj
    lv_page.o(.text) refers to lv_style.o(.text) for lv_style_list_init
    lv_page.o(.text) refers to lv_theme.o(.text) for lv_theme_apply
    lv_roller.o(.text) refers to lv_page.o(.text) for lv_page_get_scrollable
    lv_roller.o(.text) refers to lv_obj.o(.text) for lv_obj_get_child
    lv_roller.o(.text) refers to lv_anim.o(.text) for lv_anim_del
    lv_roller.o(.text) refers to lv_debug.o(.text) for lv_debug_check_null
    lv_roller.o(.text) refers to lv_label.o(.text) for lv_label_get_align
    lv_roller.o(.text) refers to lv_txt.o(.text) for _lv_txt_get_size
    lv_roller.o(.text) refers to lv_indev.o(.text) for lv_indev_get_act
    lv_roller.o(.text) refers to lv_group.o(.text) for lv_group_get_editing
    lv_roller.o(.text) refers to lv_txt.o(.data) for _lv_txt_encoded_next
    lv_roller.o(.text) refers to lv_roller.o(.data) for ancestor_scrl_signal
    lv_roller.o(.text) refers to strlen.o(.text) for strlen
    lv_roller.o(.text) refers to lv_mem.o(.text) for _lv_mem_buf_get
    lv_roller.o(.text) refers to strcpy.o(.text) for strcpy
    lv_roller.o(.text) refers to lv_area.o(.text) for _lv_area_intersect
    lv_roller.o(.text) refers to lv_draw_rect.o(.text) for lv_draw_rect_dsc_init
    lv_roller.o(.text) refers to lv_draw_label.o(.text) for lv_draw_label_dsc_init
    lv_roller.o(.text) refers to lv_style.o(.text) for lv_style_list_init
    lv_roller.o(.text) refers to lv_cont.o(.text) for lv_cont_set_fit4
    lv_roller.o(.text) refers to lv_theme.o(.text) for lv_theme_apply
    lv_slider.o(.text) refers to lv_bar.o(.text) for lv_bar_get_type
    lv_slider.o(.text) refers to lv_draw_rect.o(.text) for lv_draw_rect_dsc_init
    lv_slider.o(.text) refers to lv_obj.o(.text) for lv_obj_init_draw_rect_dsc
    lv_slider.o(.text) refers to lv_debug.o(.text) for lv_debug_check_null
    lv_slider.o(.text) refers to lv_area.o(.text) for _lv_area_is_point_on
    lv_slider.o(.text) refers to lv_indev.o(.text) for lv_indev_get_point
    lv_slider.o(.text) refers to lv_slider.o(.data) for ancestor_design_f
    lv_slider.o(.text) refers to lv_group.o(.text) for lv_group_get_editing
    lv_slider.o(.text) refers to lv_style.o(.text) for lv_style_list_init
    lv_slider.o(.text) refers to lv_theme.o(.text) for lv_theme_apply
    lv_spinbox.o(.text) refers to lv_obj.o(.text) for lv_obj_get_ext_attr
    lv_spinbox.o(.text) refers to lv_mem.o(.text) for _lv_memset_00
    lv_spinbox.o(.text) refers to lv_utils.o(.text) for _lv_utils_num_to_str
    lv_spinbox.o(.text) refers to strlen.o(.text) for strlen
    lv_spinbox.o(.text) refers to lv_textarea.o(.text) for lv_textarea_set_text
    lv_spinbox.o(.text) refers to lv_debug.o(.text) for lv_debug_check_null
    lv_spinbox.o(.text) refers to lv_math.o(.text) for _lv_pow
    lv_spinbox.o(.text) refers to lv_indev.o(.text) for lv_indev_get_act
    lv_spinbox.o(.text) refers to lv_group.o(.text) for lv_group_get_editing
    lv_spinbox.o(.text) refers to lv_page.o(.text) for lv_page_get_scrollable
    lv_spinbox.o(.text) refers to lv_theme.o(.text) for lv_theme_apply
    lv_spinbox.o(.text) refers to lv_spinbox.o(.data) for ancestor_signal
    lv_spinner.o(.text) refers to lv_obj.o(.text) for lv_obj_get_ext_attr
    lv_spinner.o(.text) refers to lv_arc.o(.text) for lv_arc_set_angles
    lv_spinner.o(.text) refers to lv_debug.o(.text) for lv_debug_check_null
    lv_spinner.o(.text) refers to lv_anim.o(.text) for lv_anim_del
    lv_spinner.o(.text) refers to lv_theme.o(.text) for lv_theme_apply
    lv_spinner.o(.text) refers to lv_spinner.o(.data) for ancestor_signal
    lv_spinner.o(.text) refers to lv_mem.o(.text) for _lv_memset_00
    lv_switch.o(.text) refers to lv_obj.o(.text) for lv_obj_get_base_dir
    lv_switch.o(.text) refers to lv_draw_rect.o(.text) for lv_draw_rect_dsc_init
    lv_switch.o(.text) refers to lv_debug.o(.text) for lv_debug_check_null
    lv_switch.o(.text) refers to lv_bar.o(.text) for lv_bar_set_value
    lv_switch.o(.text) refers to lv_switch.o(.data) for ancestor_design
    lv_switch.o(.text) refers to lv_style.o(.text) for lv_style_list_init
    lv_switch.o(.text) refers to lv_hal_disp.o(.text) for lv_disp_get_dpi
    lv_switch.o(.text) refers to lv_theme.o(.text) for lv_theme_apply
    lv_table.o(.text) refers to lv_obj.o(.text) for lv_obj_get_ext_attr
    lv_table.o(.text) refers to lv_txt.o(.text) for _lv_txt_get_size
    lv_table.o(.text) refers to lv_debug.o(.text) for lv_debug_check_null
    lv_table.o(.text) refers to lv_mem.o(.text) for lv_mem_realloc
    lv_table.o(.text) refers to lv_draw_rect.o(.text) for lv_draw_rect_dsc_init
    lv_table.o(.text) refers to lv_draw_label.o(.text) for lv_draw_label_dsc_init
    lv_table.o(.text) refers to lv_draw_line.o(.text) for lv_draw_line_dsc_init
    lv_table.o(.text) refers to lv_table.o(.data) for ancestor_design
    lv_table.o(.text) refers to lv_area.o(.text) for _lv_area_intersect
    lv_table.o(.text) refers to lv_style.o(.text) for lv_style_list_init
    lv_table.o(.text) refers to lv_theme.o(.text) for lv_theme_apply
    lv_table.o(.text) refers to strlen.o(.text) for strlen
    lv_table.o(.text) refers to strcpy.o(.text) for strcpy
    lv_table.o(.text) refers to lv_indev.o(.text) for lv_indev_get_act
    lv_tabview.o(.text) refers to lv_debug.o(.text) for lv_debug_check_null
    lv_tabview.o(.text) refers to lv_obj.o(.text) for lv_obj_get_ext_attr
    lv_tabview.o(.text) refers to lv_btnmatrix.o(.text) for lv_btnmatrix_clear_btn_ctrl
    lv_tabview.o(.text) refers to lv_page.o(.text) for lv_page_get_scrollable
    lv_tabview.o(.text) refers to lv_anim.o(.text) for lv_anim_init
    lv_tabview.o(.text) refers to lv_font.o(.text) for lv_font_get_glyph_width
    lv_tabview.o(.text) refers to lv_cont.o(.text) for lv_cont_set_fit4
    lv_tabview.o(.text) refers to lv_theme.o(.text) for lv_theme_apply
    lv_tabview.o(.text) refers to strlen.o(.text) for strlen
    lv_tabview.o(.text) refers to lv_mem.o(.text) for lv_mem_alloc
    lv_tabview.o(.text) refers to strcpy.o(.text) for strcpy
    lv_tabview.o(.text) refers to lv_tabview.o(.data) for page_signal
    lv_tabview.o(.text) refers to lv_indev.o(.text) for lv_indev_get_act
    lv_tabview.o(.text) refers to lv_group.o(.text) for lv_group_set_editing
    lv_tabview.o(.text) refers to lv_hal_disp.o(.text) for lv_disp_get_hor_res
    lv_tabview.o(.text) refers to lv_style.o(.text) for lv_style_list_copy
    lv_tabview.o(.data) refers to lv_tabview.o(.conststring) for .conststring
    lv_textarea.o(.text) refers to lv_page.o(.text) for lv_page_get_scrollable
    lv_textarea.o(.text) refers to lv_cont.o(.text) for lv_cont_set_fit4
    lv_textarea.o(.text) refers to lv_obj.o(.text) for lv_obj_get_ext_attr
    lv_textarea.o(.text) refers to lv_debug.o(.text) for lv_debug_check_null
    lv_textarea.o(.text) refers to lv_label.o(.text) for lv_label_get_text
    lv_textarea.o(.text) refers to lv_font.o(.text) for lv_font_get_glyph_width
    lv_textarea.o(.text) refers to lv_txt.o(.data) for _lv_txt_encoded_get_byte_id
    lv_textarea.o(.text) refers to strlen.o(.text) for strlen
    lv_textarea.o(.text) refers to lv_mem.o(.text) for lv_mem_free
    lv_textarea.o(.text) refers to strcpy.o(.text) for strcpy
    lv_textarea.o(.text) refers to lv_draw_label.o(.text) for lv_draw_label_dsc_init
    lv_textarea.o(.text) refers to lv_draw_rect.o(.text) for lv_draw_rect_dsc_init
    lv_textarea.o(.text) refers to lv_textarea.o(.data) for scrl_design
    lv_textarea.o(.text) refers to lv_anim.o(.text) for lv_anim_init
    lv_textarea.o(.text) refers to lv_indev.o(.text) for lv_indev_get_type
    lv_textarea.o(.text) refers to lv_txt.o(.text) for _lv_txt_ins
    lv_textarea.o(.text) refers to strcmpv7m.o(.text) for strcmp
    lv_textarea.o(.text) refers to lv_style.o(.text) for lv_style_list_init
    lv_textarea.o(.text) refers to lv_theme.o(.text) for lv_theme_apply
    lv_tileview.o(.text) refers to lv_obj.o(.text) for lv_obj_get_ext_attr
    lv_tileview.o(.text) refers to lv_debug.o(.text) for lv_debug_check_null
    lv_tileview.o(.text) refers to lv_page.o(.text) for lv_page_get_scrollable
    lv_tileview.o(.text) refers to lv_anim.o(.text) for lv_anim_init
    lv_tileview.o(.text) refers to lv_indev.o(.text) for lv_indev_get_act
    lv_tileview.o(.text) refers to lv_tileview.o(.data) for ancestor_scrl_signal
    lv_tileview.o(.text) refers to lv_hal_disp.o(.text) for lv_disp_get_hor_res
    lv_tileview.o(.text) refers to lv_cont.o(.text) for lv_cont_set_fit4
    lv_tileview.o(.text) refers to lv_theme.o(.text) for lv_theme_apply
    lv_win.o(.text) refers to lv_obj.o(.text) for lv_obj_get_ext_attr
    lv_win.o(.text) refers to lv_debug.o(.text) for lv_debug_check_null
    lv_win.o(.text) refers to lv_page.o(.text) for lv_page_get_scrollable
    lv_win.o(.text) refers to lv_mem.o(.text) for lv_mem_free
    lv_win.o(.text) refers to lv_draw_label.o(.text) for lv_draw_label_dsc_init
    lv_win.o(.text) refers to lv_txt.o(.text) for _lv_txt_get_size
    lv_win.o(.text) refers to strcpy.o(.text) for strcpy
    lv_win.o(.text) refers to lv_hal_disp.o(.text) for lv_disp_get_hor_res
    lv_win.o(.text) refers to lv_win.o(.data) for ancestor_signal
    lv_win.o(.text) refers to lv_theme.o(.text) for lv_theme_apply
    lv_win.o(.text) refers to strlen.o(.text) for strlen
    lv_win.o(.text) refers to lv_btn.o(.text) for lv_btn_create
    lv_win.o(.text) refers to lv_img.o(.text) for lv_img_create
    lv_win.o(.text) refers to lv_cont.o(.text) for lv_cont_set_layout
    lv_port_disp.o(.text) refers to lcd.o(.text) for LCD_Color_Fill
    lv_port_disp.o(.text) refers to lv_hal_disp.o(.text) for lv_disp_flush_ready
    lv_port_disp.o(.text) refers to lv_port_disp.o(.ARM.__AT_0x68000000) for color_buf
    lv_port_disp.o(.text) refers to lv_port_disp.o(.bss) for disp_buf
    lv_port_disp.o(.text) refers to lcd.o(.bss) for lcddev
    lv_port_indev.o(.text) refers to lv_hal_indev.o(.text) for lv_indev_drv_init
    lv_port_indev.o(.text) refers to touch.o(.data) for tp_dev
    lv_port_indev.o(.text) refers to lv_port_indev.o(.data) for last_x
    lv_ex_style_1.o(.text) refers to lv_style.o(.text) for lv_style_init
    lv_ex_style_1.o(.text) refers to lv_hal_disp.o(.text) for lv_disp_get_default
    lv_ex_style_1.o(.text) refers to lv_disp.o(.text) for lv_disp_get_scr_act
    lv_ex_style_1.o(.text) refers to lv_obj.o(.text) for lv_obj_create
    lv_ex_style_1.o(.text) refers to lv_ex_style_1.o(.data) for style
    lv_ex_style_1.o(.text) refers to lv_ex_style_1.o(.constdata) for .constdata
    lv_ex_img_1.o(.text) refers to lv_img.o(.text) for lv_img_set_angle
    lv_ex_img_1.o(.text) refers to lv_obj.o(.text) for lv_obj_align
    lv_ex_img_1.o(.text) refers to lv_task.o(.text) for lv_task_create
    lv_ex_img_1.o(.text) refers to lv_hal_disp.o(.text) for lv_disp_get_default
    lv_ex_img_1.o(.text) refers to lv_disp.o(.text) for lv_disp_get_scr_act
    lv_ex_img_1.o(.text) refers to lv_ex_img_1.o(.data) for angle
    lv_ex_img_1.o(.text) refers to photo.o(.constdata) for photo
    lv_ex_cpicker_1.o(.text) refers to lv_hal_disp.o(.text) for lv_disp_get_default
    lv_ex_cpicker_1.o(.text) refers to lv_disp.o(.text) for lv_disp_get_scr_act
    lv_ex_cpicker_1.o(.text) refers to lv_cpicker.o(.text) for lv_cpicker_create
    lv_ex_cpicker_1.o(.text) refers to lv_obj.o(.text) for lv_obj_set_size
    lv_ex_cpicker_2.o(.text) refers to lv_hal_disp.o(.text) for lv_disp_get_default
    lv_ex_cpicker_2.o(.text) refers to lv_disp.o(.text) for lv_disp_get_scr_act
    lv_ex_cpicker_2.o(.text) refers to lv_cpicker.o(.text) for lv_cpicker_create
    lv_ex_cpicker_2.o(.text) refers to lv_obj.o(.text) for lv_obj_set_size
    lv_font_montserrat_12_compr_az.o(.data) refers to lv_font_montserrat_12_compr_az.o(.constdata) for gylph_bitmap
    lv_font_montserrat_12_compr_az.o(.data) refers to lv_font_fmt_txt.o(.text) for lv_font_get_glyph_dsc_fmt_txt
    lv_font_montserrat_16_compr_az.o(.data) refers to lv_font_montserrat_16_compr_az.o(.constdata) for gylph_bitmap
    lv_font_montserrat_16_compr_az.o(.data) refers to lv_font_fmt_txt.o(.text) for lv_font_get_glyph_dsc_fmt_txt
    lv_font_montserrat_28_compr_az.o(.data) refers to lv_font_montserrat_28_compr_az.o(.constdata) for gylph_bitmap
    lv_font_montserrat_28_compr_az.o(.data) refers to lv_font_fmt_txt.o(.text) for lv_font_get_glyph_dsc_fmt_txt
    lv_demo_widgets.o(.text) refers to lv_page.o(.text) for lv_page_get_scrollable
    lv_demo_widgets.o(.text) refers to lv_obj.o(.text) for _lv_obj_get_style_int
    lv_demo_widgets.o(.text) refers to lv_anim.o(.text) for lv_anim_speed_to_time
    lv_demo_widgets.o(.text) refers to lv_tabview.o(.text) for lv_tabview_get_tab_act
    lv_demo_widgets.o(.text) refers to lv_table.o(.text) for lv_table_get_pressed_cell
    lv_demo_widgets.o(.text) refers to lv_hal_disp.o(.text) for lv_disp_get_size_category
    lv_demo_widgets.o(.text) refers to lv_calendar.o(.text) for lv_calendar_create
    lv_demo_widgets.o(.text) refers to lv_theme.o(.text) for lv_theme_get_font_small
    lv_demo_widgets.o(.text) refers to lv_cont.o(.text) for lv_cont_create
    lv_demo_widgets.o(.text) refers to lv_roller.o(.text) for lv_roller_create
    lv_demo_widgets.o(.text) refers to lv_dropdown.o(.text) for lv_dropdown_create
    lv_demo_widgets.o(.text) refers to lv_list.o(.text) for lv_list_create
    lv_demo_widgets.o(.text) refers to rt_memcpy_w.o(.text) for __aeabi_memcpy4
    lv_demo_widgets.o(.text) refers to lv_btn.o(.text) for lv_btn_set_checkable
    lv_demo_widgets.o(.text) refers to lv_style.o(.text) for lv_style_init
    lv_demo_widgets.o(.text) refers to lv_demo_widgets.o(.data) for tv
    lv_demo_widgets.o(.text) refers to lv_demo_widgets.o(.conststring) for .conststring
    lv_demo_widgets.o(.text) refers to lv_demo_widgets.o(.constdata) for .constdata
    lv_demo_widgets.o(.text) refers to lv_bar.o(.text) for lv_bar_get_max_value
    lv_demo_widgets.o(.text) refers to lv_printf.o(.text) for lv_snprintf
    lv_demo_widgets.o(.text) refers to lv_arc.o(.text) for lv_arc_set_end_angle
    lv_demo_widgets.o(.text) refers to lv_label.o(.text) for lv_label_set_text
    lv_demo_widgets.o(.text) refers to lv_gauge.o(.text) for lv_gauge_set_value
    lv_demo_widgets.o(.text) refers to lv_linemeter.o(.text) for lv_linemeter_set_value
    lv_demo_widgets.o(.text) refers to lv_chart.o(.text) for lv_chart_create
    lv_demo_widgets.o(.text) refers to lv_demo_widgets.o(.bss) for buf
    lv_demo_widgets.o(.text) refers to lv_led.o(.text) for lv_led_create
    lv_demo_widgets.o(.text) refers to lv_task.o(.text) for lv_task_create
    lv_demo_widgets.o(.text) refers to lv_keyboard.o(.text) for lv_keyboard_def_event_cb
    lv_demo_widgets.o(.text) refers to lv_indev.o(.text) for lv_indev_get_act
    lv_demo_widgets.o(.text) refers to lv_textarea.o(.text) for lv_textarea_set_cursor_hidden
    lv_demo_widgets.o(.text) refers to lv_slider.o(.text) for lv_slider_get_value
    lv_demo_widgets.o(.text) refers to lv_switch.o(.text) for lv_switch_create
    lv_demo_widgets.o(.text) refers to lv_checkbox.o(.text) for lv_checkbox_create
    lv_demo_widgets.o(.text) refers to lv_theme_material.o(.text) for lv_theme_material_init
    lv_demo_widgets.o(.text) refers to lv_disp.o(.text) for lv_disp_get_scr_act
    lv_demo_widgets.o(.constdata) refers to lv_demo_widgets.o(.conststring) for .conststring
    lv_demo_keypad_encoder.o(.text) refers to lv_msgbox.o(.text) for lv_msgbox_get_active_btn
    lv_demo_keypad_encoder.o(.text) refers to lv_obj.o(.text) for lv_obj_del
    lv_demo_keypad_encoder.o(.text) refers to lv_group.o(.text) for lv_group_add_obj
    lv_demo_keypad_encoder.o(.text) refers to lv_keyboard.o(.text) for lv_keyboard_def_event_cb
    lv_demo_keypad_encoder.o(.text) refers to lv_hal_disp.o(.text) for lv_disp_get_default
    lv_demo_keypad_encoder.o(.text) refers to lv_indev.o(.text) for lv_indev_get_act
    lv_demo_keypad_encoder.o(.text) refers to lv_textarea.o(.text) for lv_textarea_set_cursor_hidden
    lv_demo_keypad_encoder.o(.text) refers to lv_page.o(.text) for lv_page_focus
    lv_demo_keypad_encoder.o(.text) refers to lv_cont.o(.text) for lv_cont_set_layout
    lv_demo_keypad_encoder.o(.text) refers to lv_btn.o(.text) for lv_btn_create
    lv_demo_keypad_encoder.o(.text) refers to lv_label.o(.text) for lv_label_create
    lv_demo_keypad_encoder.o(.text) refers to lv_checkbox.o(.text) for lv_checkbox_create
    lv_demo_keypad_encoder.o(.text) refers to lv_slider.o(.text) for lv_slider_create
    lv_demo_keypad_encoder.o(.text) refers to lv_bar.o(.text) for lv_bar_set_range
    lv_demo_keypad_encoder.o(.text) refers to lv_switch.o(.text) for lv_switch_create
    lv_demo_keypad_encoder.o(.text) refers to lv_spinbox.o(.text) for lv_spinbox_create
    lv_demo_keypad_encoder.o(.text) refers to lv_dropdown.o(.text) for lv_dropdown_create
    lv_demo_keypad_encoder.o(.text) refers to lv_roller.o(.text) for lv_roller_create
    lv_demo_keypad_encoder.o(.text) refers to lv_list.o(.text) for lv_list_create
    lv_demo_keypad_encoder.o(.text) refers to lv_demo_keypad_encoder.o(.data) for tv
    lv_demo_keypad_encoder.o(.text) refers to lv_demo_keypad_encoder.o(.constdata) for .constdata
    lv_demo_keypad_encoder.o(.text) refers to lv_demo_keypad_encoder.o(.bss) for textinput_objs
    lv_demo_keypad_encoder.o(.text) refers to lv_tabview.o(.text) for lv_tabview_get_tab_act
    lv_demo_keypad_encoder.o(.text) refers to lv_hal_indev.o(.text) for lv_indev_get_next
    lv_demo_keypad_encoder.o(.text) refers to lv_disp.o(.text) for lv_disp_get_scr_act
    lv_demo_keypad_encoder.o(.data) refers to lv_demo_keypad_encoder.o(.conststring) for .conststring
    use_no_semi_2.o(.text) refers (Special) to use_no_semi.o(.text) for __use_no_semihosting_swi
    __2printf.o(.text) refers to _printf_char_file.o(.text) for _printf_char_file
    __2printf.o(.text) refers to usart.o(.data) for __stdout
    noretval__2printf.o(.text) refers to _printf_char_file.o(.text) for _printf_char_file
    noretval__2printf.o(.text) refers to usart.o(.data) for __stdout
    __printf.o(.text) refers to _printf_percent.o(.ARM.Collect$$_printf_percent$$00000000) for _printf_percent
    _printf_str.o(.text) refers (Special) to _printf_char.o(.text) for _printf_cs_common
    _printf_dec.o(.text) refers to _printf_intcommon.o(.text) for _printf_int_common
    _printf_hex_ll.o(.text) refers to _printf_intcommon.o(.text) for _printf_int_common
    _printf_hex_ll.o(.text) refers to _printf_hex_ll.o(.constdata) for .constdata
    _printf_hex_int.o(.text) refers to _printf_intcommon.o(.text) for _printf_int_common
    _printf_hex_int.o(.text) refers to _printf_hex_int.o(.constdata) for .constdata
    _printf_hex_int_ll.o(.text) refers to _printf_intcommon.o(.text) for _printf_int_common
    _printf_hex_int_ll.o(.text) refers to _printf_hex_int_ll.o(.constdata) for .constdata
    _printf_hex_ptr.o(.text) refers to _printf_intcommon.o(.text) for _printf_int_common
    _printf_hex_ptr.o(.text) refers to _printf_hex_ptr.o(.constdata) for .constdata
    _printf_hex_int_ptr.o(.text) refers to _printf_intcommon.o(.text) for _printf_int_common
    _printf_hex_int_ptr.o(.text) refers to _printf_hex_int_ptr.o(.constdata) for .constdata
    _printf_hex_ll_ptr.o(.text) refers to _printf_intcommon.o(.text) for _printf_int_common
    _printf_hex_ll_ptr.o(.text) refers to _printf_hex_ll_ptr.o(.constdata) for .constdata
    _printf_hex_int_ll_ptr.o(.text) refers to _printf_intcommon.o(.text) for _printf_int_common
    _printf_hex_int_ll_ptr.o(.text) refers to _printf_hex_int_ll_ptr.o(.constdata) for .constdata
    __printf_flags.o(.text) refers to _printf_percent.o(.ARM.Collect$$_printf_percent$$00000000) for _printf_percent
    __printf_flags.o(.text) refers to __printf_flags.o(.constdata) for .constdata
    __printf_ss.o(.text) refers to _printf_percent.o(.ARM.Collect$$_printf_percent$$00000000) for _printf_percent
    __printf_flags_ss.o(.text) refers to _printf_percent.o(.ARM.Collect$$_printf_percent$$00000000) for _printf_percent
    __printf_flags_ss.o(.text) refers to __printf_flags_ss.o(.constdata) for .constdata
    __printf_wp.o(.text) refers to __printf_wp.o(i._is_digit) for _is_digit
    __printf_wp.o(.text) refers to _printf_percent.o(.ARM.Collect$$_printf_percent$$00000000) for _printf_percent
    __printf_flags_wp.o(.text) refers to __printf_wp.o(i._is_digit) for _is_digit
    __printf_flags_wp.o(.text) refers to _printf_percent.o(.ARM.Collect$$_printf_percent$$00000000) for _printf_percent
    __printf_flags_wp.o(.text) refers to __printf_flags_wp.o(.constdata) for .constdata
    __printf_ss_wp.o(.text) refers to __printf_wp.o(i._is_digit) for _is_digit
    __printf_ss_wp.o(.text) refers to _printf_percent.o(.ARM.Collect$$_printf_percent$$00000000) for _printf_percent
    __printf_flags_ss_wp.o(.text) refers to __printf_wp.o(i._is_digit) for _is_digit
    __printf_flags_ss_wp.o(.text) refers to _printf_percent.o(.ARM.Collect$$_printf_percent$$00000000) for _printf_percent
    __printf_flags_ss_wp.o(.text) refers to __printf_flags_ss_wp.o(.constdata) for .constdata
    _printf_s.o(.ARM.Collect$$_printf_percent$$00000014) refers (Weak) to _printf_char.o(.text) for _printf_string
    _printf_x.o(.ARM.Collect$$_printf_percent$$0000000C) refers (Weak) to _printf_hex_int.o(.text) for _printf_int_hex
    _printf_d.o(.ARM.Collect$$_printf_percent$$00000009) refers (Weak) to _printf_dec.o(.text) for _printf_int_dec
    _printf_percent.o(.ARM.Collect$$_printf_percent$$00000000) refers (Special) to _printf_percent_end.o(.ARM.Collect$$_printf_percent$$00000017) for _printf_percent_end
    rt_memcpy_v6.o(.text) refers to rt_memcpy_w.o(.text) for __aeabi_memcpy4
    strncpy.o(.text) refers to rt_memclr.o(.text) for __aeabi_memclr
    __main.o(!!!main) refers to __rtentry.o(.ARM.Collect$$rtentry$$00000000) for __rt_entry
    daddsub_clz.o(x$fpl$dadd) refers (Special) to usenofp.o(x$fpl$usenofp) for __I$use$fp
    daddsub_clz.o(x$fpl$dadd) refers to daddsub_clz.o(x$fpl$dsub) for _dsub1
    daddsub_clz.o(x$fpl$dadd) refers to dretinf.o(x$fpl$dretinf) for __fpl_dretinf
    daddsub_clz.o(x$fpl$dadd) refers to dnaninf.o(x$fpl$dnaninf) for __fpl_dnaninf
    daddsub_clz.o(x$fpl$drsb) refers (Special) to usenofp.o(x$fpl$usenofp) for __I$use$fp
    daddsub_clz.o(x$fpl$drsb) refers to daddsub_clz.o(x$fpl$dadd) for _dadd1
    daddsub_clz.o(x$fpl$drsb) refers to daddsub_clz.o(x$fpl$dsub) for _dsub1
    daddsub_clz.o(x$fpl$dsub) refers (Special) to usenofp.o(x$fpl$usenofp) for __I$use$fp
    daddsub_clz.o(x$fpl$dsub) refers to daddsub_clz.o(x$fpl$dadd) for _dadd1
    daddsub_clz.o(x$fpl$dsub) refers to dnaninf.o(x$fpl$dnaninf) for __fpl_dnaninf
    dfixu.o(x$fpl$dfixu) refers (Special) to usenofp.o(x$fpl$usenofp) for __I$use$fp
    dfixu.o(x$fpl$dfixu) refers to dnaninf.o(x$fpl$dnaninf) for __fpl_dnaninf
    dfixu.o(x$fpl$dfixur) refers (Special) to usenofp.o(x$fpl$usenofp) for __I$use$fp
    dfixu.o(x$fpl$dfixur) refers to dnaninf.o(x$fpl$dnaninf) for __fpl_dnaninf
    dflt_clz.o(x$fpl$dfltu) refers (Special) to usenofp.o(x$fpl$usenofp) for __I$use$fp
    dflt_clz.o(x$fpl$dflt) refers (Special) to usenofp.o(x$fpl$usenofp) for __I$use$fp
    dflt_clz.o(x$fpl$dfltn) refers (Special) to usenofp.o(x$fpl$usenofp) for __I$use$fp
    dleqf.o(x$fpl$dleqf) refers (Special) to usenofp.o(x$fpl$usenofp) for __I$use$fp
    dleqf.o(x$fpl$dleqf) refers to dnaninf.o(x$fpl$dnaninf) for __fpl_dnaninf
    dleqf.o(x$fpl$dleqf) refers to dcmpi.o(x$fpl$dcmpinf) for __fpl_dcmp_Inf
    dmul.o(x$fpl$dmul) refers (Special) to usenofp.o(x$fpl$usenofp) for __I$use$fp
    dmul.o(x$fpl$dmul) refers to dretinf.o(x$fpl$dretinf) for __fpl_dretinf
    dmul.o(x$fpl$dmul) refers to dnaninf.o(x$fpl$dnaninf) for __fpl_dnaninf
    drleqf.o(x$fpl$drleqf) refers (Special) to usenofp.o(x$fpl$usenofp) for __I$use$fp
    drleqf.o(x$fpl$drleqf) refers to dleqf.o(x$fpl$dleqf) for __fpl_dcmple_InfNaN
    f2d.o(x$fpl$f2d) refers (Special) to usenofp.o(x$fpl$usenofp) for __I$use$fp
    f2d.o(x$fpl$f2d) refers to fnaninf.o(x$fpl$fnaninf) for __fpl_fnaninf
    f2d.o(x$fpl$f2d) refers to dretinf.o(x$fpl$dretinf) for __fpl_dretinf
    sqrt.o(i.__hardfp_sqrt) refers (Special) to usenofp.o(x$fpl$usenofp) for __I$use$fp
    sqrt.o(i.__hardfp_sqrt) refers to dsqrt_umaal.o(x$fpl$dsqrt) for _dsqrt
    sqrt.o(i.__hardfp_sqrt) refers to _rserrno.o(.text) for __set_errno
    sqrt.o(i.__softfp_sqrt) refers (Special) to usenofp.o(x$fpl$usenofp) for __I$use$fp
    sqrt.o(i.__softfp_sqrt) refers to dsqrt_umaal.o(x$fpl$dsqrt) for _dsqrt
    sqrt.o(i.__softfp_sqrt) refers to _rserrno.o(.text) for __set_errno
    sqrt.o(i.sqrt) refers (Special) to usenofp.o(x$fpl$usenofp) for __I$use$fp
    sqrt.o(i.sqrt) refers to dsqrt_umaal.o(x$fpl$dsqrt) for _dsqrt
    sqrt.o(i.sqrt) refers to _rserrno.o(.text) for __set_errno
    sqrt_x.o(i.____hardfp_sqrt$lsc) refers (Special) to usenofp.o(x$fpl$usenofp) for __I$use$fp
    sqrt_x.o(i.____hardfp_sqrt$lsc) refers to dleqf.o(x$fpl$dleqf) for __aeabi_cdcmple
    sqrt_x.o(i.____hardfp_sqrt$lsc) refers to _rserrno.o(.text) for __set_errno
    sqrt_x.o(i.____hardfp_sqrt$lsc) refers to dsqrt_umaal.o(x$fpl$dsqrt) for _dsqrt
    sqrt_x.o(i.____softfp_sqrt$lsc) refers (Special) to usenofp.o(x$fpl$usenofp) for __I$use$fp
    sqrt_x.o(i.____softfp_sqrt$lsc) refers to dleqf.o(x$fpl$dleqf) for __aeabi_cdcmple
    sqrt_x.o(i.____softfp_sqrt$lsc) refers to _rserrno.o(.text) for __set_errno
    sqrt_x.o(i.____softfp_sqrt$lsc) refers to dsqrt_umaal.o(x$fpl$dsqrt) for _dsqrt
    sqrt_x.o(i.__sqrt$lsc) refers (Special) to usenofp.o(x$fpl$usenofp) for __I$use$fp
    sqrt_x.o(i.__sqrt$lsc) refers to dleqf.o(x$fpl$dleqf) for __aeabi_cdcmple
    sqrt_x.o(i.__sqrt$lsc) refers to _rserrno.o(.text) for __set_errno
    sqrt_x.o(i.__sqrt$lsc) refers to dsqrt_umaal.o(x$fpl$dsqrt) for _dsqrt
    __rtentry.o(.ARM.Collect$$rtentry$$00000000) refers (Special) to __rtentry2.o(.ARM.Collect$$rtentry$$0000000A) for __rt_entry_li
    __rtentry.o(.ARM.Collect$$rtentry$$00000000) refers (Special) to __rtentry2.o(.ARM.Collect$$rtentry$$0000000D) for __rt_entry_main
    __rtentry.o(.ARM.Collect$$rtentry$$00000000) refers (Special) to __rtentry2.o(.ARM.Collect$$rtentry$$0000000C) for __rt_entry_postli_1
    __rtentry.o(.ARM.Collect$$rtentry$$00000000) refers (Special) to __rtentry2.o(.ARM.Collect$$rtentry$$00000009) for __rt_entry_postsh_1
    __rtentry.o(.ARM.Collect$$rtentry$$00000000) refers (Special) to __rtentry2.o(.ARM.Collect$$rtentry$$00000002) for __rt_entry_presh_1
    __rtentry.o(.ARM.Collect$$rtentry$$00000000) refers (Special) to __rtentry4.o(.ARM.Collect$$rtentry$$00000004) for __rt_entry_sh
    aeabi_ldiv0_sigfpe.o(.text) refers to rt_div0.o(.text) for __rt_div0
    _rserrno.o(.text) refers to rt_errno_addr_intlibspace.o(.text) for __aeabi_errno_addr
    _printf_char.o(.text) refers (Weak) to _printf_str.o(.text) for _printf_str
    _printf_char_file.o(.text) refers to _printf_char_common.o(.text) for _printf_char_common
    _printf_char_file.o(.text) refers to ferror.o(.text) for ferror
    _printf_char_file.o(.text) refers to usart.o(.text) for fputc
    rt_memclr.o(.text) refers to rt_memclr_w.o(.text) for _memset_w
    dcmpi.o(x$fpl$dcmpinf) refers (Special) to usenofp.o(x$fpl$usenofp) for __I$use$fp
    dnaninf.o(x$fpl$dnaninf) refers (Special) to usenofp.o(x$fpl$usenofp) for __I$use$fp
    dretinf.o(x$fpl$dretinf) refers (Special) to usenofp.o(x$fpl$usenofp) for __I$use$fp
    dsqrt_umaal.o(x$fpl$dsqrt) refers (Special) to usenofp.o(x$fpl$usenofp) for __I$use$fp
    dsqrt_umaal.o(x$fpl$dsqrt) refers to dnaninf.o(x$fpl$dnaninf) for __fpl_dnaninf
    fnaninf.o(x$fpl$fnaninf) refers (Special) to usenofp.o(x$fpl$usenofp) for __I$use$fp
    __rtentry2.o(.ARM.Collect$$rtentry$$00000008) refers to boardinit2.o(.text) for _platform_post_stackheap_init
    __rtentry2.o(.ARM.Collect$$rtentry$$0000000A) refers to libinit.o(.ARM.Collect$$libinit$$00000000) for __rt_lib_init
    __rtentry2.o(.ARM.Collect$$rtentry$$0000000B) refers to boardinit3.o(.text) for _platform_post_lib_init
    __rtentry2.o(.ARM.Collect$$rtentry$$0000000D) refers to main.o(.text) for main
    __rtentry2.o(.ARM.Collect$$rtentry$$0000000D) refers to exit.o(.text) for exit
    __rtentry2.o(.ARM.exidx) refers to __rtentry2.o(.ARM.Collect$$rtentry$$00000001) for .ARM.Collect$$rtentry$$00000001
    __rtentry2.o(.ARM.exidx) refers to __rtentry2.o(.ARM.Collect$$rtentry$$00000008) for .ARM.Collect$$rtentry$$00000008
    __rtentry2.o(.ARM.exidx) refers to __rtentry2.o(.ARM.Collect$$rtentry$$0000000A) for .ARM.Collect$$rtentry$$0000000A
    __rtentry2.o(.ARM.exidx) refers to __rtentry2.o(.ARM.Collect$$rtentry$$0000000B) for .ARM.Collect$$rtentry$$0000000B
    __rtentry2.o(.ARM.exidx) refers to __rtentry2.o(.ARM.Collect$$rtentry$$0000000D) for .ARM.Collect$$rtentry$$0000000D
    __rtentry4.o(.ARM.Collect$$rtentry$$00000004) refers to sys_stackheap_outer.o(.text) for __user_setup_stackheap
    __rtentry4.o(.ARM.exidx) refers to __rtentry4.o(.ARM.Collect$$rtentry$$00000004) for .ARM.Collect$$rtentry$$00000004
    rt_div0.o(.text) refers to defsig_fpe_outer.o(.text) for __rt_SIGFPE
    rt_errno_addr.o(.text) refers to rt_errno_addr.o(.bss) for __aeabi_errno_addr_data
    rt_errno_addr_intlibspace.o(.text) refers to libspace.o(.bss) for __libspace_start
    _printf_char_common.o(.text) refers to __printf.o(.text) for __printf
    libspace.o(.text) refers to libspace.o(.bss) for __libspace_start
    sys_stackheap_outer.o(.text) refers to libspace.o(.text) for __user_perproc_libspace
    sys_stackheap_outer.o(.text) refers to startup_stm32f40_41xxx.o(.text) for __user_initial_stackheap
    exit.o(.text) refers to rtexit.o(.ARM.Collect$$rtexit$$00000000) for __rt_exit
    defsig_fpe_outer.o(.text) refers to defsig_fpe_inner.o(.text) for __rt_SIGFPE_inner
    defsig_fpe_outer.o(.text) refers to defsig_exit.o(.text) for __sig_exit
    defsig_fpe_formal.o(.text) refers to rt_raise.o(.text) for __rt_raise
    libinit.o(.ARM.Collect$$libinit$$00000000) refers (Special) to libinit2.o(.ARM.Collect$$libinit$$0000002E) for __rt_lib_init_alloca_1
    libinit.o(.ARM.Collect$$libinit$$00000000) refers (Special) to libinit2.o(.ARM.Collect$$libinit$$0000002C) for __rt_lib_init_argv_1
    libinit.o(.ARM.Collect$$libinit$$00000000) refers (Special) to libinit2.o(.ARM.Collect$$libinit$$0000001B) for __rt_lib_init_atexit_1
    libinit.o(.ARM.Collect$$libinit$$00000000) refers (Special) to libinit2.o(.ARM.Collect$$libinit$$00000021) for __rt_lib_init_clock_1
    libinit.o(.ARM.Collect$$libinit$$00000000) refers (Special) to libinit2.o(.ARM.Collect$$libinit$$00000032) for __rt_lib_init_cpp_1
    libinit.o(.ARM.Collect$$libinit$$00000000) refers (Special) to libinit2.o(.ARM.Collect$$libinit$$00000030) for __rt_lib_init_exceptions_1
    libinit.o(.ARM.Collect$$libinit$$00000000) refers (Special) to libinit2.o(.ARM.Collect$$libinit$$00000001) for __rt_lib_init_fp_1
    libinit.o(.ARM.Collect$$libinit$$00000000) refers (Special) to libinit2.o(.ARM.Collect$$libinit$$0000001F) for __rt_lib_init_fp_trap_1
    libinit.o(.ARM.Collect$$libinit$$00000000) refers (Special) to libinit2.o(.ARM.Collect$$libinit$$00000023) for __rt_lib_init_getenv_1
    libinit.o(.ARM.Collect$$libinit$$00000000) refers (Special) to libinit2.o(.ARM.Collect$$libinit$$0000000A) for __rt_lib_init_heap_1
    libinit.o(.ARM.Collect$$libinit$$00000000) refers (Special) to libinit2.o(.ARM.Collect$$libinit$$00000011) for __rt_lib_init_lc_collate_1
    libinit.o(.ARM.Collect$$libinit$$00000000) refers (Special) to libinit2.o(.ARM.Collect$$libinit$$00000013) for __rt_lib_init_lc_ctype_1
    libinit.o(.ARM.Collect$$libinit$$00000000) refers (Special) to libinit2.o(.ARM.Collect$$libinit$$00000015) for __rt_lib_init_lc_monetary_1
    libinit.o(.ARM.Collect$$libinit$$00000000) refers (Special) to libinit2.o(.ARM.Collect$$libinit$$00000017) for __rt_lib_init_lc_numeric_1
    libinit.o(.ARM.Collect$$libinit$$00000000) refers (Special) to libinit2.o(.ARM.Collect$$libinit$$00000019) for __rt_lib_init_lc_time_1
    libinit.o(.ARM.Collect$$libinit$$00000000) refers (Special) to libinit2.o(.ARM.Collect$$libinit$$00000004) for __rt_lib_init_preinit_1
    libinit.o(.ARM.Collect$$libinit$$00000000) refers (Special) to libinit2.o(.ARM.Collect$$libinit$$0000000E) for __rt_lib_init_rand_1
    libinit.o(.ARM.Collect$$libinit$$00000000) refers (Special) to libinit2.o(.ARM.Collect$$libinit$$00000033) for __rt_lib_init_return
    libinit.o(.ARM.Collect$$libinit$$00000000) refers (Special) to libinit2.o(.ARM.Collect$$libinit$$0000001D) for __rt_lib_init_signal_1
    libinit.o(.ARM.Collect$$libinit$$00000000) refers (Special) to libinit2.o(.ARM.Collect$$libinit$$00000025) for __rt_lib_init_stdio_1
    libinit.o(.ARM.Collect$$libinit$$00000000) refers (Special) to libinit2.o(.ARM.Collect$$libinit$$0000000C) for __rt_lib_init_user_alloc_1
    rtexit.o(.ARM.Collect$$rtexit$$00000000) refers (Special) to rtexit2.o(.ARM.Collect$$rtexit$$00000004) for __rt_exit_exit
    rtexit.o(.ARM.Collect$$rtexit$$00000000) refers (Special) to rtexit2.o(.ARM.Collect$$rtexit$$00000003) for __rt_exit_ls
    rtexit.o(.ARM.Collect$$rtexit$$00000000) refers (Special) to rtexit2.o(.ARM.Collect$$rtexit$$00000002) for __rt_exit_prels_1
    rtexit.o(.ARM.exidx) refers (Special) to rtexit2.o(.ARM.Collect$$rtexit$$00000004) for __rt_exit_exit
    rtexit.o(.ARM.exidx) refers (Special) to rtexit2.o(.ARM.Collect$$rtexit$$00000003) for __rt_exit_ls
    rtexit.o(.ARM.exidx) refers (Special) to rtexit2.o(.ARM.Collect$$rtexit$$00000002) for __rt_exit_prels_1
    rtexit.o(.ARM.exidx) refers to rtexit.o(.ARM.Collect$$rtexit$$00000000) for .ARM.Collect$$rtexit$$00000000
    rt_raise.o(.text) refers to __raise.o(.text) for __raise
    rt_raise.o(.text) refers to usart.o(.text) for _sys_exit
    defsig_exit.o(.text) refers to usart.o(.text) for _sys_exit
    defsig_fpe_inner.o(.text) refers to defsig_general.o(.text) for __default_signal_display
    libinit2.o(.ARM.Collect$$libinit$$00000001) refers to fpinit.o(x$fpl$fpinit) for _fp_init
    libinit2.o(.ARM.Collect$$libinit$$00000010) refers to libinit2.o(.ARM.Collect$$libinit$$0000000F) for .ARM.Collect$$libinit$$0000000F
    libinit2.o(.ARM.Collect$$libinit$$00000012) refers to libinit2.o(.ARM.Collect$$libinit$$0000000F) for .ARM.Collect$$libinit$$0000000F
    libinit2.o(.ARM.Collect$$libinit$$00000014) refers to libinit2.o(.ARM.Collect$$libinit$$0000000F) for .ARM.Collect$$libinit$$0000000F
    libinit2.o(.ARM.Collect$$libinit$$00000016) refers to libinit2.o(.ARM.Collect$$libinit$$0000000F) for .ARM.Collect$$libinit$$0000000F
    libinit2.o(.ARM.Collect$$libinit$$00000018) refers to libinit2.o(.ARM.Collect$$libinit$$0000000F) for .ARM.Collect$$libinit$$0000000F
    libinit2.o(.ARM.Collect$$libinit$$00000026) refers to argv_veneer.o(.emb_text) for __ARM_argv_veneer
    libinit2.o(.ARM.Collect$$libinit$$00000027) refers to argv_veneer.o(.emb_text) for __ARM_argv_veneer
    rtexit2.o(.ARM.Collect$$rtexit$$00000003) refers to libshutdown.o(.ARM.Collect$$libshutdown$$00000000) for __rt_lib_shutdown
    rtexit2.o(.ARM.Collect$$rtexit$$00000004) refers to usart.o(.text) for _sys_exit
    rtexit2.o(.ARM.exidx) refers to rtexit2.o(.ARM.Collect$$rtexit$$00000001) for .ARM.Collect$$rtexit$$00000001
    rtexit2.o(.ARM.exidx) refers to rtexit2.o(.ARM.Collect$$rtexit$$00000003) for .ARM.Collect$$rtexit$$00000003
    rtexit2.o(.ARM.exidx) refers to rtexit2.o(.ARM.Collect$$rtexit$$00000004) for .ARM.Collect$$rtexit$$00000004
    __raise.o(.text) refers to defsig.o(CL$$defsig) for __default_signal_handler
    defsig_general.o(.text) refers to sys_wrch.o(.text) for _ttywrch
    argv_veneer.o(.emb_text) refers to no_argv.o(.text) for __ARM_get_argv
    sys_wrch.o(.text) refers (Special) to use_no_semi.o(.text) for __I$use$semihosting
    sys_wrch.o(.text) refers (Special) to indicate_semi.o(.text) for __semihosting_library_function
    defsig.o(CL$$defsig) refers to defsig_fpe_inner.o(.text) for __rt_SIGFPE_inner
    defsig.o(CL$$defsig) refers to defsig_rtmem_inner.o(.text) for __rt_SIGRTMEM_inner
    _get_argv_nomalloc.o(.text) refers (Special) to hrguard.o(.text) for __heap_region$guard
    _get_argv_nomalloc.o(.text) refers to defsig_rtmem_outer.o(.text) for __rt_SIGRTMEM
    _get_argv_nomalloc.o(.text) refers to sys_command.o(.text) for _sys_command_string
    libshutdown.o(.ARM.Collect$$libshutdown$$00000000) refers (Special) to libshutdown2.o(.ARM.Collect$$libshutdown$$00000002) for __rt_lib_shutdown_cpp_1
    libshutdown.o(.ARM.Collect$$libshutdown$$00000000) refers (Special) to libshutdown2.o(.ARM.Collect$$libshutdown$$00000007) for __rt_lib_shutdown_fp_trap_1
    libshutdown.o(.ARM.Collect$$libshutdown$$00000000) refers (Special) to libshutdown2.o(.ARM.Collect$$libshutdown$$0000000F) for __rt_lib_shutdown_heap_1
    libshutdown.o(.ARM.Collect$$libshutdown$$00000000) refers (Special) to libshutdown2.o(.ARM.Collect$$libshutdown$$00000010) for __rt_lib_shutdown_return
    libshutdown.o(.ARM.Collect$$libshutdown$$00000000) refers (Special) to libshutdown2.o(.ARM.Collect$$libshutdown$$0000000A) for __rt_lib_shutdown_signal_1
    libshutdown.o(.ARM.Collect$$libshutdown$$00000000) refers (Special) to libshutdown2.o(.ARM.Collect$$libshutdown$$00000004) for __rt_lib_shutdown_stdio_1
    libshutdown.o(.ARM.Collect$$libshutdown$$00000000) refers (Special) to libshutdown2.o(.ARM.Collect$$libshutdown$$0000000C) for __rt_lib_shutdown_user_alloc_1
    sys_command.o(.text) refers (Special) to use_no_semi.o(.text) for __I$use$semihosting
    sys_command.o(.text) refers (Special) to indicate_semi.o(.text) for __semihosting_library_function
    defsig_abrt_inner.o(.text) refers to defsig_general.o(.text) for __default_signal_display
    defsig_rtred_inner.o(.text) refers to defsig_general.o(.text) for __default_signal_display
    defsig_rtmem_inner.o(.text) refers to defsig_general.o(.text) for __default_signal_display
    defsig_rtmem_outer.o(.text) refers to defsig_rtmem_inner.o(.text) for __rt_SIGRTMEM_inner
    defsig_rtmem_outer.o(.text) refers to defsig_exit.o(.text) for __sig_exit
    defsig_rtmem_formal.o(.text) refers to rt_raise.o(.text) for __rt_raise
    defsig_stak_inner.o(.text) refers to defsig_general.o(.text) for __default_signal_display
    defsig_pvfn_inner.o(.text) refers to defsig_general.o(.text) for __default_signal_display
    defsig_cppl_inner.o(.text) refers to defsig_general.o(.text) for __default_signal_display
    defsig_segv_inner.o(.text) refers to defsig_general.o(.text) for __default_signal_display
    defsig_other.o(.text) refers to defsig_general.o(.text) for __default_signal_display


==============================================================================

Removing Unused input sections from the image.

    Removing main.o(.rev16_text), (4 bytes).
    Removing main.o(.revsh_text), (4 bytes).
    Removing stm32f4xx_it.o(.rev16_text), (4 bytes).
    Removing stm32f4xx_it.o(.revsh_text), (4 bytes).
    Removing system_stm32f4xx.o(.rev16_text), (4 bytes).
    Removing system_stm32f4xx.o(.revsh_text), (4 bytes).
    Removing led.o(.rev16_text), (4 bytes).
    Removing led.o(.revsh_text), (4 bytes).
    Removing lcd.o(.rev16_text), (4 bytes).
    Removing lcd.o(.revsh_text), (4 bytes).
    Removing key.o(.rev16_text), (4 bytes).
    Removing key.o(.revsh_text), (4 bytes).
    Removing myiic.o(.rev16_text), (4 bytes).
    Removing myiic.o(.revsh_text), (4 bytes).
    Removing 24cxx.o(.rev16_text), (4 bytes).
    Removing 24cxx.o(.revsh_text), (4 bytes).
    Removing ctiic.o(.rev16_text), (4 bytes).
    Removing ctiic.o(.revsh_text), (4 bytes).
    Removing gt9147.o(.rev16_text), (4 bytes).
    Removing gt9147.o(.revsh_text), (4 bytes).
    Removing ott2001a.o(.rev16_text), (4 bytes).
    Removing ott2001a.o(.revsh_text), (4 bytes).
    Removing ft5206.o(.rev16_text), (4 bytes).
    Removing ft5206.o(.revsh_text), (4 bytes).
    Removing touch.o(.rev16_text), (4 bytes).
    Removing touch.o(.revsh_text), (4 bytes).
    Removing timer.o(.rev16_text), (4 bytes).
    Removing timer.o(.revsh_text), (4 bytes).
    Removing sram.o(.rev16_text), (4 bytes).
    Removing sram.o(.revsh_text), (4 bytes).
    Removing delay.o(.rev16_text), (4 bytes).
    Removing delay.o(.revsh_text), (4 bytes).
    Removing sys.o(.rev16_text), (4 bytes).
    Removing sys.o(.revsh_text), (4 bytes).
    Removing sys.o(.emb_text), (16 bytes).
    Removing usart.o(.rev16_text), (4 bytes).
    Removing usart.o(.revsh_text), (4 bytes).
    Removing misc.o(.rev16_text), (4 bytes).
    Removing misc.o(.revsh_text), (4 bytes).
    Removing stm32f4xx_gpio.o(.rev16_text), (4 bytes).
    Removing stm32f4xx_gpio.o(.revsh_text), (4 bytes).
    Removing stm32f4xx_fsmc.o(.rev16_text), (4 bytes).
    Removing stm32f4xx_fsmc.o(.revsh_text), (4 bytes).
    Removing stm32f4xx_rcc.o(.rev16_text), (4 bytes).
    Removing stm32f4xx_rcc.o(.revsh_text), (4 bytes).
    Removing stm32f4xx_syscfg.o(.rev16_text), (4 bytes).
    Removing stm32f4xx_syscfg.o(.revsh_text), (4 bytes).
    Removing stm32f4xx_syscfg.o(.text), (148 bytes).
    Removing stm32f4xx_usart.o(.rev16_text), (4 bytes).
    Removing stm32f4xx_usart.o(.revsh_text), (4 bytes).
    Removing stm32f4xx_tim.o(.rev16_text), (4 bytes).
    Removing stm32f4xx_tim.o(.revsh_text), (4 bytes).
    Removing lv_draw_arc.o(.text), (2906 bytes).
    Removing lv_draw_triangle.o(.text), (668 bytes).
    Removing lv_draw_triangle.o(.constdata), (8 bytes).
    Removing lv_theme_empty.o(.text), (204 bytes).
    Removing lv_theme_empty.o(.bss), (40 bytes).
    Removing lv_theme_empty.o(.data), (5 bytes).
    Removing lv_theme_mono.o(.text), (8224 bytes).
    Removing lv_theme_mono.o(.bss), (40 bytes).
    Removing lv_theme_mono.o(.constdata), (314 bytes).
    Removing lv_theme_mono.o(.data), (5 bytes).
    Removing lv_theme_template.o(.text), (3752 bytes).
    Removing lv_theme_template.o(.bss), (40 bytes).
    Removing lv_theme_template.o(.constdata), (22 bytes).
    Removing lv_theme_template.o(.data), (5 bytes).
    Removing lv_arc.o(.text), (5882 bytes).
    Removing lv_arc.o(.data), (8 bytes).
    Removing lv_calendar.o(.text), (4844 bytes).
    Removing lv_calendar.o(.conststring), (133 bytes).
    Removing lv_calendar.o(.data), (84 bytes).
    Removing lv_canvas.o(.text), (6896 bytes).
    Removing lv_canvas.o(.constdata), (22 bytes).
    Removing lv_canvas.o(.data), (17 bytes).
    Removing lv_chart.o(.text), (7512 bytes).
    Removing lv_chart.o(.data), (8 bytes).
    Removing lv_cpicker.o(.text), (5254 bytes).
    Removing lv_cpicker.o(.constdata), (4 bytes).
    Removing lv_cpicker.o(.data), (8 bytes).
    Removing lv_gauge.o(.text), (3312 bytes).
    Removing lv_gauge.o(.data), (8 bytes).
    Removing lv_imgbtn.o(.text), (1516 bytes).
    Removing lv_imgbtn.o(.data), (8 bytes).
    Removing lv_led.o(.text), (972 bytes).
    Removing lv_led.o(.data), (8 bytes).
    Removing lv_line.o(.text), (1072 bytes).
    Removing lv_line.o(.data), (4 bytes).
    Removing lv_linemeter.o(.text), (3686 bytes).
    Removing lv_linemeter.o(.data), (4 bytes).
    Removing lv_objmask.o(.text), (1388 bytes).
    Removing lv_objmask.o(.data), (8 bytes).
    Removing lv_spinner.o(.text), (1268 bytes).
    Removing lv_spinner.o(.data), (8 bytes).
    Removing lv_table.o(.text), (5818 bytes).
    Removing lv_table.o(.data), (8 bytes).
    Removing lv_tileview.o(.text), (2288 bytes).
    Removing lv_tileview.o(.data), (12 bytes).
    Removing lv_win.o(.text), (3468 bytes).
    Removing lv_win.o(.data), (8 bytes).
    Removing lv_port_disp.o(.rev16_text), (4 bytes).
    Removing lv_port_disp.o(.revsh_text), (4 bytes).
    Removing lv_port_indev.o(.rev16_text), (4 bytes).
    Removing lv_port_indev.o(.revsh_text), (4 bytes).
    Removing lv_ex_style_1.o(.text), (216 bytes).
    Removing lv_ex_style_1.o(.constdata), (6 bytes).
    Removing lv_ex_style_1.o(.data), (4 bytes).
    Removing lv_ex_img_1.o(.text), (196 bytes).
    Removing lv_ex_img_1.o(.data), (12 bytes).
    Removing lv_ex_cpicker_1.o(.text), (52 bytes).
    Removing lv_ex_cpicker_2.o(.text), (60 bytes).
    Removing img_cogwheel_alpha16.o(.constdata), (5012 bytes).
    Removing img_cogwheel_argb.o(.constdata), (30012 bytes).
    Removing img_cogwheel_chroma_keyed.o(.constdata), (20012 bytes).
    Removing img_cogwheel_indexed16.o(.constdata), (5076 bytes).
    Removing img_cogwheel_rgb.o(.constdata), (20012 bytes).
    Removing img_hand.o(.constdata), (2712 bytes).
    Removing lv_font_montserrat_12_compr_az.o(.constdata), (1120 bytes).
    Removing lv_font_montserrat_12_compr_az.o(.data), (52 bytes).
    Removing lv_font_montserrat_16_compr_az.o(.constdata), (1432 bytes).
    Removing lv_font_montserrat_16_compr_az.o(.data), (52 bytes).
    Removing lv_font_montserrat_28_compr_az.o(.constdata), (2640 bytes).
    Removing lv_font_montserrat_28_compr_az.o(.data), (52 bytes).
    Removing photo.o(.constdata), (20012 bytes).
    Removing lv_demo_widgets.o(.text), (6796 bytes).
    Removing lv_demo_widgets.o(.bss), (304 bytes).
    Removing lv_demo_widgets.o(.constdata), (94 bytes).
    Removing lv_demo_widgets.o(.conststring), (338 bytes).
    Removing lv_demo_widgets.o(.data), (40 bytes).

128 unused section(s) (total 188463 bytes) removed from the image.

==============================================================================

Image Symbol Table

    Local Symbols

    Symbol Name                              Value     Ov Type        Size  Object(Section)

    ../clib/angel/boardlib.s                 0x00000000   Number         0  boardinit1.o ABSOLUTE
    ../clib/angel/boardlib.s                 0x00000000   Number         0  boardinit3.o ABSOLUTE
    ../clib/angel/boardlib.s                 0x00000000   Number         0  boardinit2.o ABSOLUTE
    ../clib/angel/boardlib.s                 0x00000000   Number         0  boardshut.o ABSOLUTE
    ../clib/angel/dczerorl2.s                0x00000000   Number         0  __dczerorl2.o ABSOLUTE
    ../clib/angel/handlers.s                 0x00000000   Number         0  __scatter_zi.o ABSOLUTE
    ../clib/angel/kernel.s                   0x00000000   Number         0  rtexit2.o ABSOLUTE
    ../clib/angel/kernel.s                   0x00000000   Number         0  __rtentry.o ABSOLUTE
    ../clib/angel/kernel.s                   0x00000000   Number         0  rtexit.o ABSOLUTE
    ../clib/angel/kernel.s                   0x00000000   Number         0  __rtentry2.o ABSOLUTE
    ../clib/angel/kernel.s                   0x00000000   Number         0  __rtentry4.o ABSOLUTE
    ../clib/angel/rt.s                       0x00000000   Number         0  rt_raise.o ABSOLUTE
    ../clib/angel/rt.s                       0x00000000   Number         0  rt_div0.o ABSOLUTE
    ../clib/angel/rt.s                       0x00000000   Number         0  rt_errno_addr_intlibspace.o ABSOLUTE
    ../clib/angel/rt.s                       0x00000000   Number         0  aeabi_ldiv0.o ABSOLUTE
    ../clib/angel/rt.s                       0x00000000   Number         0  aeabi_ldiv0_sigfpe.o ABSOLUTE
    ../clib/angel/rt.s                       0x00000000   Number         0  rt_errno_addr.o ABSOLUTE
    ../clib/angel/scatter.s                  0x00000000   Number         0  __scatter.o ABSOLUTE
    ../clib/angel/startup.s                  0x00000000   Number         0  __main.o ABSOLUTE
    ../clib/angel/sys.s                      0x00000000   Number         0  sys_stackheap_outer.o ABSOLUTE
    ../clib/angel/sys.s                      0x00000000   Number         0  indicate_semi.o ABSOLUTE
    ../clib/angel/sys.s                      0x00000000   Number         0  libspace.o ABSOLUTE
    ../clib/angel/sys.s                      0x00000000   Number         0  use_no_semi_2.o ABSOLUTE
    ../clib/angel/sys.s                      0x00000000   Number         0  use_no_semi.o ABSOLUTE
    ../clib/angel/sysapp.c                   0x00000000   Number         0  sys_command.o ABSOLUTE
    ../clib/angel/sysapp.c                   0x00000000   Number         0  sys_wrch.o ABSOLUTE
    ../clib/armsys.c                         0x00000000   Number         0  argv_veneer.o ABSOLUTE
    ../clib/armsys.c                         0x00000000   Number         0  argv_veneer.o ABSOLUTE
    ../clib/armsys.c                         0x00000000   Number         0  _get_argv_nomalloc.o ABSOLUTE
    ../clib/armsys.c                         0x00000000   Number         0  no_argv.o ABSOLUTE
    ../clib/fenv.c                           0x00000000   Number         0  _rserrno.o ABSOLUTE
    ../clib/heapalloc.c                      0x00000000   Number         0  hrguard.o ABSOLUTE
    ../clib/heapaux.c                        0x00000000   Number         0  heapauxi.o ABSOLUTE
    ../clib/libinit.s                        0x00000000   Number         0  libinit.o ABSOLUTE
    ../clib/libinit.s                        0x00000000   Number         0  libshutdown.o ABSOLUTE
    ../clib/libinit.s                        0x00000000   Number         0  libinit2.o ABSOLUTE
    ../clib/libinit.s                        0x00000000   Number         0  libshutdown2.o ABSOLUTE
    ../clib/longlong.s                       0x00000000   Number         0  lludivv7m.o ABSOLUTE
    ../clib/memcpset.s                       0x00000000   Number         0  strncpy.o ABSOLUTE
    ../clib/memcpset.s                       0x00000000   Number         0  strcmpv7m.o ABSOLUTE
    ../clib/memcpset.s                       0x00000000   Number         0  rt_memclr_w.o ABSOLUTE
    ../clib/memcpset.s                       0x00000000   Number         0  rt_memcpy_w.o ABSOLUTE
    ../clib/memcpset.s                       0x00000000   Number         0  rt_memcpy_v6.o ABSOLUTE
    ../clib/memcpset.s                       0x00000000   Number         0  rt_memclr.o ABSOLUTE
    ../clib/printf.c                         0x00000000   Number         0  _printf_hex_int_ll.o ABSOLUTE
    ../clib/printf.c                         0x00000000   Number         0  __printf_flags_ss.o ABSOLUTE
    ../clib/printf.c                         0x00000000   Number         0  __printf_ss.o ABSOLUTE
    ../clib/printf.c                         0x00000000   Number         0  _printf_hex_int.o ABSOLUTE
    ../clib/printf.c                         0x00000000   Number         0  _printf_hex_ptr.o ABSOLUTE
    ../clib/printf.c                         0x00000000   Number         0  __printf_flags_wp.o ABSOLUTE
    ../clib/printf.c                         0x00000000   Number         0  _printf_hex_ll.o ABSOLUTE
    ../clib/printf.c                         0x00000000   Number         0  __2printf.o ABSOLUTE
    ../clib/printf.c                         0x00000000   Number         0  noretval__2printf.o ABSOLUTE
    ../clib/printf.c                         0x00000000   Number         0  _printf_dec.o ABSOLUTE
    ../clib/printf.c                         0x00000000   Number         0  _printf_char_common.o ABSOLUTE
    ../clib/printf.c                         0x00000000   Number         0  _printf_str.o ABSOLUTE
    ../clib/printf.c                         0x00000000   Number         0  __printf_ss_wp.o ABSOLUTE
    ../clib/printf.c                         0x00000000   Number         0  __printf_flags_ss_wp.o ABSOLUTE
    ../clib/printf.c                         0x00000000   Number         0  _printf_hex_int_ptr.o ABSOLUTE
    ../clib/printf.c                         0x00000000   Number         0  _printf_hex_ll_ptr.o ABSOLUTE
    ../clib/printf.c                         0x00000000   Number         0  __printf.o ABSOLUTE
    ../clib/printf.c                         0x00000000   Number         0  __printf_wp.o ABSOLUTE
    ../clib/printf.c                         0x00000000   Number         0  _printf_hex_int_ll_ptr.o ABSOLUTE
    ../clib/printf.c                         0x00000000   Number         0  __printf_nopercent.o ABSOLUTE
    ../clib/printf.c                         0x00000000   Number         0  _printf_char_file.o ABSOLUTE
    ../clib/printf.c                         0x00000000   Number         0  _printf_char.o ABSOLUTE
    ../clib/printf.c                         0x00000000   Number         0  _printf_intcommon.o ABSOLUTE
    ../clib/printf.c                         0x00000000   Number         0  __printf_flags.o ABSOLUTE
    ../clib/printf_percent.s                 0x00000000   Number         0  _printf_percent.o ABSOLUTE
    ../clib/printf_percent.s                 0x00000000   Number         0  _printf_s.o ABSOLUTE
    ../clib/printf_percent.s                 0x00000000   Number         0  _printf_x.o ABSOLUTE
    ../clib/printf_percent.s                 0x00000000   Number         0  _printf_d.o ABSOLUTE
    ../clib/printf_percent.s                 0x00000000   Number         0  _printf_percent_end.o ABSOLUTE
    ../clib/signal.c                         0x00000000   Number         0  __raise.o ABSOLUTE
    ../clib/signal.c                         0x00000000   Number         0  defsig_fpe_inner.o ABSOLUTE
    ../clib/signal.c                         0x00000000   Number         0  defsig_fpe_formal.o ABSOLUTE
    ../clib/signal.c                         0x00000000   Number         0  defsig_fpe_outer.o ABSOLUTE
    ../clib/signal.c                         0x00000000   Number         0  defsig_general.o ABSOLUTE
    ../clib/signal.c                         0x00000000   Number         0  defsig_exit.o ABSOLUTE
    ../clib/signal.c                         0x00000000   Number         0  defsig_stak_inner.o ABSOLUTE
    ../clib/signal.c                         0x00000000   Number         0  defsig_segv_inner.o ABSOLUTE
    ../clib/signal.c                         0x00000000   Number         0  defsig_rtmem_formal.o ABSOLUTE
    ../clib/signal.c                         0x00000000   Number         0  defsig_rtmem_inner.o ABSOLUTE
    ../clib/signal.c                         0x00000000   Number         0  defsig_rtred_inner.o ABSOLUTE
    ../clib/signal.c                         0x00000000   Number         0  defsig_pvfn_inner.o ABSOLUTE
    ../clib/signal.c                         0x00000000   Number         0  defsig_cppl_inner.o ABSOLUTE
    ../clib/signal.c                         0x00000000   Number         0  defsig_abrt_inner.o ABSOLUTE
    ../clib/signal.c                         0x00000000   Number         0  defsig_other.o ABSOLUTE
    ../clib/signal.c                         0x00000000   Number         0  defsig_rtmem_outer.o ABSOLUTE
    ../clib/signal.s                         0x00000000   Number         0  defsig.o ABSOLUTE
    ../clib/stdio.c                          0x00000000   Number         0  ferror_locked.o ABSOLUTE
    ../clib/stdio.c                          0x00000000   Number         0  ferror.o ABSOLUTE
    ../clib/stdlib.c                         0x00000000   Number         0  exit.o ABSOLUTE
    ../clib/string.c                         0x00000000   Number         0  strlen.o ABSOLUTE
    ../clib/string.c                         0x00000000   Number         0  strcat.o ABSOLUTE
    ../clib/string.c                         0x00000000   Number         0  memcmp.o ABSOLUTE
    ../clib/string.c                         0x00000000   Number         0  strcpy.o ABSOLUTE
    ../fplib/daddsub.s                       0x00000000   Number         0  daddsub_clz.o ABSOLUTE
    ../fplib/dcmpi.s                         0x00000000   Number         0  dcmpi.o ABSOLUTE
    ../fplib/dfixu.s                         0x00000000   Number         0  dfixu.o ABSOLUTE
    ../fplib/dflt.s                          0x00000000   Number         0  dflt_clz.o ABSOLUTE
    ../fplib/dleqf.s                         0x00000000   Number         0  dleqf.o ABSOLUTE
    ../fplib/dmul.s                          0x00000000   Number         0  dmul.o ABSOLUTE
    ../fplib/dnaninf.s                       0x00000000   Number         0  dnaninf.o ABSOLUTE
    ../fplib/dretinf.s                       0x00000000   Number         0  dretinf.o ABSOLUTE
    ../fplib/drleqf.s                        0x00000000   Number         0  drleqf.o ABSOLUTE
    ../fplib/dsqrt.s                         0x00000000   Number         0  dsqrt_umaal.o ABSOLUTE
    ../fplib/f2d.s                           0x00000000   Number         0  f2d.o ABSOLUTE
    ../fplib/fnaninf.s                       0x00000000   Number         0  fnaninf.o ABSOLUTE
    ../fplib/fpinit.s                        0x00000000   Number         0  fpinit.o ABSOLUTE
    ../fplib/usenofp.s                       0x00000000   Number         0  usenofp.o ABSOLUTE
    ../mathlib/sqrt.c                        0x00000000   Number         0  sqrt_x.o ABSOLUTE
    ../mathlib/sqrt.c                        0x00000000   Number         0  sqrt.o ABSOLUTE
    ..\CORE\startup_stm32f40_41xxx.s         0x00000000   Number         0  startup_stm32f40_41xxx.o ABSOLUTE
    ..\FWLIB\src\misc.c                      0x00000000   Number         0  misc.o ABSOLUTE
    ..\FWLIB\src\stm32f4xx_fsmc.c            0x00000000   Number         0  stm32f4xx_fsmc.o ABSOLUTE
    ..\FWLIB\src\stm32f4xx_gpio.c            0x00000000   Number         0  stm32f4xx_gpio.o ABSOLUTE
    ..\FWLIB\src\stm32f4xx_rcc.c             0x00000000   Number         0  stm32f4xx_rcc.o ABSOLUTE
    ..\FWLIB\src\stm32f4xx_syscfg.c          0x00000000   Number         0  stm32f4xx_syscfg.o ABSOLUTE
    ..\FWLIB\src\stm32f4xx_tim.c             0x00000000   Number         0  stm32f4xx_tim.o ABSOLUTE
    ..\FWLIB\src\stm32f4xx_usart.c           0x00000000   Number         0  stm32f4xx_usart.o ABSOLUTE
    ..\GUI\lv_examples\src\assets\img_cogwheel_alpha16.c 0x00000000   Number         0  img_cogwheel_alpha16.o ABSOLUTE
    ..\GUI\lv_examples\src\assets\img_cogwheel_argb.c 0x00000000   Number         0  img_cogwheel_argb.o ABSOLUTE
    ..\GUI\lv_examples\src\assets\img_cogwheel_chroma_keyed.c 0x00000000   Number         0  img_cogwheel_chroma_keyed.o ABSOLUTE
    ..\GUI\lv_examples\src\assets\img_cogwheel_indexed16.c 0x00000000   Number         0  img_cogwheel_indexed16.o ABSOLUTE
    ..\GUI\lv_examples\src\assets\img_cogwheel_rgb.c 0x00000000   Number         0  img_cogwheel_rgb.o ABSOLUTE
    ..\GUI\lv_examples\src\assets\img_hand.c 0x00000000   Number         0  img_hand.o ABSOLUTE
    ..\GUI\lv_examples\src\assets\lv_font_montserrat_12_compr_az.c 0x00000000   Number         0  lv_font_montserrat_12_compr_az.o ABSOLUTE
    ..\GUI\lv_examples\src\assets\lv_font_montserrat_16_compr_az.c 0x00000000   Number         0  lv_font_montserrat_16_compr_az.o ABSOLUTE
    ..\GUI\lv_examples\src\assets\lv_font_montserrat_28_compr_az.c 0x00000000   Number         0  lv_font_montserrat_28_compr_az.o ABSOLUTE
    ..\GUI\lv_examples\src\assets\photo.c    0x00000000   Number         0  photo.o ABSOLUTE
    ..\GUI\lv_examples\src\lv_demo_keypad_encoder\lv_demo_keypad_encoder.c 0x00000000   Number         0  lv_demo_keypad_encoder.o ABSOLUTE
    ..\GUI\lv_examples\src\lv_demo_widgets\lv_demo_widgets.c 0x00000000   Number         0  lv_demo_widgets.o ABSOLUTE
    ..\GUI\lv_examples\src\lv_ex_style\lv_ex_style_1.c 0x00000000   Number         0  lv_ex_style_1.o ABSOLUTE
    ..\GUI\lv_examples\src\lv_ex_widgets\lv_ex_cpicker\lv_ex_cpicker_1.c 0x00000000   Number         0  lv_ex_cpicker_1.o ABSOLUTE
    ..\GUI\lv_examples\src\lv_ex_widgets\lv_ex_cpicker\lv_ex_cpicker_2.c 0x00000000   Number         0  lv_ex_cpicker_2.o ABSOLUTE
    ..\GUI\lv_examples\src\lv_ex_widgets\lv_ex_img\lv_ex_img_1.c 0x00000000   Number         0  lv_ex_img_1.o ABSOLUTE
    ..\GUI\lvgl\src\lv_core\lv_disp.c        0x00000000   Number         0  lv_disp.o ABSOLUTE
    ..\GUI\lvgl\src\lv_core\lv_group.c       0x00000000   Number         0  lv_group.o ABSOLUTE
    ..\GUI\lvgl\src\lv_core\lv_indev.c       0x00000000   Number         0  lv_indev.o ABSOLUTE
    ..\GUI\lvgl\src\lv_core\lv_obj.c         0x00000000   Number         0  lv_obj.o ABSOLUTE
    ..\GUI\lvgl\src\lv_core\lv_refr.c        0x00000000   Number         0  lv_refr.o ABSOLUTE
    ..\GUI\lvgl\src\lv_core\lv_style.c       0x00000000   Number         0  lv_style.o ABSOLUTE
    ..\GUI\lvgl\src\lv_draw\lv_draw_arc.c    0x00000000   Number         0  lv_draw_arc.o ABSOLUTE
    ..\GUI\lvgl\src\lv_draw\lv_draw_blend.c  0x00000000   Number         0  lv_draw_blend.o ABSOLUTE
    ..\GUI\lvgl\src\lv_draw\lv_draw_img.c    0x00000000   Number         0  lv_draw_img.o ABSOLUTE
    ..\GUI\lvgl\src\lv_draw\lv_draw_label.c  0x00000000   Number         0  lv_draw_label.o ABSOLUTE
    ..\GUI\lvgl\src\lv_draw\lv_draw_line.c   0x00000000   Number         0  lv_draw_line.o ABSOLUTE
    ..\GUI\lvgl\src\lv_draw\lv_draw_mask.c   0x00000000   Number         0  lv_draw_mask.o ABSOLUTE
    ..\GUI\lvgl\src\lv_draw\lv_draw_rect.c   0x00000000   Number         0  lv_draw_rect.o ABSOLUTE
    ..\GUI\lvgl\src\lv_draw\lv_draw_triangle.c 0x00000000   Number         0  lv_draw_triangle.o ABSOLUTE
    ..\GUI\lvgl\src\lv_draw\lv_img_buf.c     0x00000000   Number         0  lv_img_buf.o ABSOLUTE
    ..\GUI\lvgl\src\lv_draw\lv_img_cache.c   0x00000000   Number         0  lv_img_cache.o ABSOLUTE
    ..\GUI\lvgl\src\lv_draw\lv_img_decoder.c 0x00000000   Number         0  lv_img_decoder.o ABSOLUTE
    ..\GUI\lvgl\src\lv_font\lv_font.c        0x00000000   Number         0  lv_font.o ABSOLUTE
    ..\GUI\lvgl\src\lv_font\lv_font_dejavu_16_persian_hebrew.c 0x00000000   Number         0  lv_font_dejavu_16_persian_hebrew.o ABSOLUTE
    ..\GUI\lvgl\src\lv_font\lv_font_fmt_txt.c 0x00000000   Number         0  lv_font_fmt_txt.o ABSOLUTE
    ..\GUI\lvgl\src\lv_font\lv_font_loader.c 0x00000000   Number         0  lv_font_loader.o ABSOLUTE
    ..\GUI\lvgl\src\lv_font\lv_font_montserrat_12.c 0x00000000   Number         0  lv_font_montserrat_12.o ABSOLUTE
    ..\GUI\lvgl\src\lv_font\lv_font_montserrat_12_subpx.c 0x00000000   Number         0  lv_font_montserrat_12_subpx.o ABSOLUTE
    ..\GUI\lvgl\src\lv_font\lv_font_montserrat_14.c 0x00000000   Number         0  lv_font_montserrat_14.o ABSOLUTE
    ..\GUI\lvgl\src\lv_font\lv_font_montserrat_16.c 0x00000000   Number         0  lv_font_montserrat_16.o ABSOLUTE
    ..\GUI\lvgl\src\lv_font\lv_font_montserrat_18.c 0x00000000   Number         0  lv_font_montserrat_18.o ABSOLUTE
    ..\GUI\lvgl\src\lv_font\lv_font_montserrat_20.c 0x00000000   Number         0  lv_font_montserrat_20.o ABSOLUTE
    ..\GUI\lvgl\src\lv_font\lv_font_montserrat_22.c 0x00000000   Number         0  lv_font_montserrat_22.o ABSOLUTE
    ..\GUI\lvgl\src\lv_font\lv_font_montserrat_24.c 0x00000000   Number         0  lv_font_montserrat_24.o ABSOLUTE
    ..\GUI\lvgl\src\lv_font\lv_font_montserrat_26.c 0x00000000   Number         0  lv_font_montserrat_26.o ABSOLUTE
    ..\GUI\lvgl\src\lv_font\lv_font_montserrat_28.c 0x00000000   Number         0  lv_font_montserrat_28.o ABSOLUTE
    ..\GUI\lvgl\src\lv_font\lv_font_montserrat_28_compressed.c 0x00000000   Number         0  lv_font_montserrat_28_compressed.o ABSOLUTE
    ..\GUI\lvgl\src\lv_font\lv_font_montserrat_30.c 0x00000000   Number         0  lv_font_montserrat_30.o ABSOLUTE
    ..\GUI\lvgl\src\lv_font\lv_font_montserrat_32.c 0x00000000   Number         0  lv_font_montserrat_32.o ABSOLUTE
    ..\GUI\lvgl\src\lv_font\lv_font_montserrat_34.c 0x00000000   Number         0  lv_font_montserrat_34.o ABSOLUTE
    ..\GUI\lvgl\src\lv_font\lv_font_montserrat_36.c 0x00000000   Number         0  lv_font_montserrat_36.o ABSOLUTE
    ..\GUI\lvgl\src\lv_font\lv_font_montserrat_38.c 0x00000000   Number         0  lv_font_montserrat_38.o ABSOLUTE
    ..\GUI\lvgl\src\lv_font\lv_font_montserrat_40.c 0x00000000   Number         0  lv_font_montserrat_40.o ABSOLUTE
    ..\GUI\lvgl\src\lv_font\lv_font_montserrat_42.c 0x00000000   Number         0  lv_font_montserrat_42.o ABSOLUTE
    ..\GUI\lvgl\src\lv_font\lv_font_montserrat_44.c 0x00000000   Number         0  lv_font_montserrat_44.o ABSOLUTE
    ..\GUI\lvgl\src\lv_font\lv_font_montserrat_46.c 0x00000000   Number         0  lv_font_montserrat_46.o ABSOLUTE
    ..\GUI\lvgl\src\lv_font\lv_font_montserrat_48.c 0x00000000   Number         0  lv_font_montserrat_48.o ABSOLUTE
    ..\GUI\lvgl\src\lv_font\lv_font_simsun_16_cjk.c 0x00000000   Number         0  lv_font_simsun_16_cjk.o ABSOLUTE
    ..\GUI\lvgl\src\lv_font\lv_font_unscii_8.c 0x00000000   Number         0  lv_font_unscii_8.o ABSOLUTE
    ..\GUI\lvgl\src\lv_gpu\lv_gpu_stm32_dma2d.c 0x00000000   Number         0  lv_gpu_stm32_dma2d.o ABSOLUTE
    ..\GUI\lvgl\src\lv_hal\lv_hal_disp.c     0x00000000   Number         0  lv_hal_disp.o ABSOLUTE
    ..\GUI\lvgl\src\lv_hal\lv_hal_indev.c    0x00000000   Number         0  lv_hal_indev.o ABSOLUTE
    ..\GUI\lvgl\src\lv_hal\lv_hal_tick.c     0x00000000   Number         0  lv_hal_tick.o ABSOLUTE
    ..\GUI\lvgl\src\lv_misc\lv_anim.c        0x00000000   Number         0  lv_anim.o ABSOLUTE
    ..\GUI\lvgl\src\lv_misc\lv_area.c        0x00000000   Number         0  lv_area.o ABSOLUTE
    ..\GUI\lvgl\src\lv_misc\lv_async.c       0x00000000   Number         0  lv_async.o ABSOLUTE
    ..\GUI\lvgl\src\lv_misc\lv_bidi.c        0x00000000   Number         0  lv_bidi.o ABSOLUTE
    ..\GUI\lvgl\src\lv_misc\lv_color.c       0x00000000   Number         0  lv_color.o ABSOLUTE
    ..\GUI\lvgl\src\lv_misc\lv_debug.c       0x00000000   Number         0  lv_debug.o ABSOLUTE
    ..\GUI\lvgl\src\lv_misc\lv_fs.c          0x00000000   Number         0  lv_fs.o ABSOLUTE
    ..\GUI\lvgl\src\lv_misc\lv_gc.c          0x00000000   Number         0  lv_gc.o ABSOLUTE
    ..\GUI\lvgl\src\lv_misc\lv_ll.c          0x00000000   Number         0  lv_ll.o ABSOLUTE
    ..\GUI\lvgl\src\lv_misc\lv_log.c         0x00000000   Number         0  lv_log.o ABSOLUTE
    ..\GUI\lvgl\src\lv_misc\lv_math.c        0x00000000   Number         0  lv_math.o ABSOLUTE
    ..\GUI\lvgl\src\lv_misc\lv_mem.c         0x00000000   Number         0  lv_mem.o ABSOLUTE
    ..\GUI\lvgl\src\lv_misc\lv_printf.c      0x00000000   Number         0  lv_printf.o ABSOLUTE
    ..\GUI\lvgl\src\lv_misc\lv_task.c        0x00000000   Number         0  lv_task.o ABSOLUTE
    ..\GUI\lvgl\src\lv_misc\lv_templ.c       0x00000000   Number         0  lv_templ.o ABSOLUTE
    ..\GUI\lvgl\src\lv_misc\lv_txt.c         0x00000000   Number         0  lv_txt.o ABSOLUTE
    ..\GUI\lvgl\src\lv_misc\lv_txt_ap.c      0x00000000   Number         0  lv_txt_ap.o ABSOLUTE
    ..\GUI\lvgl\src\lv_misc\lv_utils.c       0x00000000   Number         0  lv_utils.o ABSOLUTE
    ..\GUI\lvgl\src\lv_themes\lv_theme.c     0x00000000   Number         0  lv_theme.o ABSOLUTE
    ..\GUI\lvgl\src\lv_themes\lv_theme_empty.c 0x00000000   Number         0  lv_theme_empty.o ABSOLUTE
    ..\GUI\lvgl\src\lv_themes\lv_theme_material.c 0x00000000   Number         0  lv_theme_material.o ABSOLUTE
    ..\GUI\lvgl\src\lv_themes\lv_theme_mono.c 0x00000000   Number         0  lv_theme_mono.o ABSOLUTE
    ..\GUI\lvgl\src\lv_themes\lv_theme_template.c 0x00000000   Number         0  lv_theme_template.o ABSOLUTE
    ..\GUI\lvgl\src\lv_widgets\lv_arc.c      0x00000000   Number         0  lv_arc.o ABSOLUTE
    ..\GUI\lvgl\src\lv_widgets\lv_bar.c      0x00000000   Number         0  lv_bar.o ABSOLUTE
    ..\GUI\lvgl\src\lv_widgets\lv_btn.c      0x00000000   Number         0  lv_btn.o ABSOLUTE
    ..\GUI\lvgl\src\lv_widgets\lv_btnmatrix.c 0x00000000   Number         0  lv_btnmatrix.o ABSOLUTE
    ..\GUI\lvgl\src\lv_widgets\lv_calendar.c 0x00000000   Number         0  lv_calendar.o ABSOLUTE
    ..\GUI\lvgl\src\lv_widgets\lv_canvas.c   0x00000000   Number         0  lv_canvas.o ABSOLUTE
    ..\GUI\lvgl\src\lv_widgets\lv_chart.c    0x00000000   Number         0  lv_chart.o ABSOLUTE
    ..\GUI\lvgl\src\lv_widgets\lv_checkbox.c 0x00000000   Number         0  lv_checkbox.o ABSOLUTE
    ..\GUI\lvgl\src\lv_widgets\lv_cont.c     0x00000000   Number         0  lv_cont.o ABSOLUTE
    ..\GUI\lvgl\src\lv_widgets\lv_cpicker.c  0x00000000   Number         0  lv_cpicker.o ABSOLUTE
    ..\GUI\lvgl\src\lv_widgets\lv_dropdown.c 0x00000000   Number         0  lv_dropdown.o ABSOLUTE
    ..\GUI\lvgl\src\lv_widgets\lv_gauge.c    0x00000000   Number         0  lv_gauge.o ABSOLUTE
    ..\GUI\lvgl\src\lv_widgets\lv_img.c      0x00000000   Number         0  lv_img.o ABSOLUTE
    ..\GUI\lvgl\src\lv_widgets\lv_imgbtn.c   0x00000000   Number         0  lv_imgbtn.o ABSOLUTE
    ..\GUI\lvgl\src\lv_widgets\lv_keyboard.c 0x00000000   Number         0  lv_keyboard.o ABSOLUTE
    ..\GUI\lvgl\src\lv_widgets\lv_label.c    0x00000000   Number         0  lv_label.o ABSOLUTE
    ..\GUI\lvgl\src\lv_widgets\lv_led.c      0x00000000   Number         0  lv_led.o ABSOLUTE
    ..\GUI\lvgl\src\lv_widgets\lv_line.c     0x00000000   Number         0  lv_line.o ABSOLUTE
    ..\GUI\lvgl\src\lv_widgets\lv_linemeter.c 0x00000000   Number         0  lv_linemeter.o ABSOLUTE
    ..\GUI\lvgl\src\lv_widgets\lv_list.c     0x00000000   Number         0  lv_list.o ABSOLUTE
    ..\GUI\lvgl\src\lv_widgets\lv_msgbox.c   0x00000000   Number         0  lv_msgbox.o ABSOLUTE
    ..\GUI\lvgl\src\lv_widgets\lv_objmask.c  0x00000000   Number         0  lv_objmask.o ABSOLUTE
    ..\GUI\lvgl\src\lv_widgets\lv_objx_templ.c 0x00000000   Number         0  lv_objx_templ.o ABSOLUTE
    ..\GUI\lvgl\src\lv_widgets\lv_page.c     0x00000000   Number         0  lv_page.o ABSOLUTE
    ..\GUI\lvgl\src\lv_widgets\lv_roller.c   0x00000000   Number         0  lv_roller.o ABSOLUTE
    ..\GUI\lvgl\src\lv_widgets\lv_slider.c   0x00000000   Number         0  lv_slider.o ABSOLUTE
    ..\GUI\lvgl\src\lv_widgets\lv_spinbox.c  0x00000000   Number         0  lv_spinbox.o ABSOLUTE
    ..\GUI\lvgl\src\lv_widgets\lv_spinner.c  0x00000000   Number         0  lv_spinner.o ABSOLUTE
    ..\GUI\lvgl\src\lv_widgets\lv_switch.c   0x00000000   Number         0  lv_switch.o ABSOLUTE
    ..\GUI\lvgl\src\lv_widgets\lv_table.c    0x00000000   Number         0  lv_table.o ABSOLUTE
    ..\GUI\lvgl\src\lv_widgets\lv_tabview.c  0x00000000   Number         0  lv_tabview.o ABSOLUTE
    ..\GUI\lvgl\src\lv_widgets\lv_textarea.c 0x00000000   Number         0  lv_textarea.o ABSOLUTE
    ..\GUI\lvgl\src\lv_widgets\lv_tileview.c 0x00000000   Number         0  lv_tileview.o ABSOLUTE
    ..\GUI\lvgl\src\lv_widgets\lv_win.c      0x00000000   Number         0  lv_win.o ABSOLUTE
    ..\GUI\lvgl_driver\lv_port_disp.c        0x00000000   Number         0  lv_port_disp.o ABSOLUTE
    ..\GUI\lvgl_driver\lv_port_indev.c       0x00000000   Number         0  lv_port_indev.o ABSOLUTE
    ..\HARDWARE\24CXX\24cxx.c                0x00000000   Number         0  24cxx.o ABSOLUTE
    ..\HARDWARE\IIC\myiic.c                  0x00000000   Number         0  myiic.o ABSOLUTE
    ..\HARDWARE\KEY\key.c                    0x00000000   Number         0  key.o ABSOLUTE
    ..\HARDWARE\LCD\lcd.c                    0x00000000   Number         0  lcd.o ABSOLUTE
    ..\HARDWARE\LED\led.c                    0x00000000   Number         0  led.o ABSOLUTE
    ..\HARDWARE\SRAM\sram.c                  0x00000000   Number         0  sram.o ABSOLUTE
    ..\HARDWARE\TIMER\timer.c                0x00000000   Number         0  timer.o ABSOLUTE
    ..\HARDWARE\TOUCH\ctiic.c                0x00000000   Number         0  ctiic.o ABSOLUTE
    ..\HARDWARE\TOUCH\ft5206.c               0x00000000   Number         0  ft5206.o ABSOLUTE
    ..\HARDWARE\TOUCH\gt9147.c               0x00000000   Number         0  gt9147.o ABSOLUTE
    ..\HARDWARE\TOUCH\ott2001a.c             0x00000000   Number         0  ott2001a.o ABSOLUTE
    ..\HARDWARE\TOUCH\touch.c                0x00000000   Number         0  touch.o ABSOLUTE
    ..\SYSTEM\delay\delay.c                  0x00000000   Number         0  delay.o ABSOLUTE
    ..\SYSTEM\sys\sys.c                      0x00000000   Number         0  sys.o ABSOLUTE
    ..\SYSTEM\usart\usart.c                  0x00000000   Number         0  usart.o ABSOLUTE
    ..\\FWLIB\\src\\misc.c                   0x00000000   Number         0  misc.o ABSOLUTE
    ..\\FWLIB\\src\\stm32f4xx_fsmc.c         0x00000000   Number         0  stm32f4xx_fsmc.o ABSOLUTE
    ..\\FWLIB\\src\\stm32f4xx_gpio.c         0x00000000   Number         0  stm32f4xx_gpio.o ABSOLUTE
    ..\\FWLIB\\src\\stm32f4xx_rcc.c          0x00000000   Number         0  stm32f4xx_rcc.o ABSOLUTE
    ..\\FWLIB\\src\\stm32f4xx_syscfg.c       0x00000000   Number         0  stm32f4xx_syscfg.o ABSOLUTE
    ..\\FWLIB\\src\\stm32f4xx_tim.c          0x00000000   Number         0  stm32f4xx_tim.o ABSOLUTE
    ..\\FWLIB\\src\\stm32f4xx_usart.c        0x00000000   Number         0  stm32f4xx_usart.o ABSOLUTE
    ..\\GUI\\lvgl_driver\\lv_port_disp.c     0x00000000   Number         0  lv_port_disp.o ABSOLUTE
    ..\\GUI\\lvgl_driver\\lv_port_indev.c    0x00000000   Number         0  lv_port_indev.o ABSOLUTE
    ..\\HARDWARE\\24CXX\\24cxx.c             0x00000000   Number         0  24cxx.o ABSOLUTE
    ..\\HARDWARE\\IIC\\myiic.c               0x00000000   Number         0  myiic.o ABSOLUTE
    ..\\HARDWARE\\KEY\\key.c                 0x00000000   Number         0  key.o ABSOLUTE
    ..\\HARDWARE\\LCD\\lcd.c                 0x00000000   Number         0  lcd.o ABSOLUTE
    ..\\HARDWARE\\LED\\led.c                 0x00000000   Number         0  led.o ABSOLUTE
    ..\\HARDWARE\\SRAM\\sram.c               0x00000000   Number         0  sram.o ABSOLUTE
    ..\\HARDWARE\\TIMER\\timer.c             0x00000000   Number         0  timer.o ABSOLUTE
    ..\\HARDWARE\\TOUCH\\ctiic.c             0x00000000   Number         0  ctiic.o ABSOLUTE
    ..\\HARDWARE\\TOUCH\\ft5206.c            0x00000000   Number         0  ft5206.o ABSOLUTE
    ..\\HARDWARE\\TOUCH\\gt9147.c            0x00000000   Number         0  gt9147.o ABSOLUTE
    ..\\HARDWARE\\TOUCH\\ott2001a.c          0x00000000   Number         0  ott2001a.o ABSOLUTE
    ..\\HARDWARE\\TOUCH\\touch.c             0x00000000   Number         0  touch.o ABSOLUTE
    ..\\SYSTEM\\delay\\delay.c               0x00000000   Number         0  delay.o ABSOLUTE
    ..\\SYSTEM\\sys\\sys.c                   0x00000000   Number         0  sys.o ABSOLUTE
    ..\\SYSTEM\\usart\\usart.c               0x00000000   Number         0  usart.o ABSOLUTE
    dc.s                                     0x00000000   Number         0  dc.o ABSOLUTE
    main.c                                   0x00000000   Number         0  main.o ABSOLUTE
    main.c                                   0x00000000   Number         0  main.o ABSOLUTE
    stm32f4xx_it.c                           0x00000000   Number         0  stm32f4xx_it.o ABSOLUTE
    stm32f4xx_it.c                           0x00000000   Number         0  stm32f4xx_it.o ABSOLUTE
    system_stm32f4xx.c                       0x00000000   Number         0  system_stm32f4xx.o ABSOLUTE
    system_stm32f4xx.c                       0x00000000   Number         0  system_stm32f4xx.o ABSOLUTE
    RESET                                    0x08000000   Section      392  startup_stm32f40_41xxx.o(RESET)
    !!!main                                  0x08000188   Section        8  __main.o(!!!main)
    !!!scatter                               0x08000190   Section       52  __scatter.o(!!!scatter)
    !!dczerorl2                              0x080001c4   Section       90  __dczerorl2.o(!!dczerorl2)
    !!handler_zi                             0x08000220   Section       28  __scatter_zi.o(!!handler_zi)
    .ARM.Collect$$_printf_percent$$00000000  0x0800023c   Section        0  _printf_percent.o(.ARM.Collect$$_printf_percent$$00000000)
    .ARM.Collect$$_printf_percent$$00000009  0x0800023c   Section        6  _printf_d.o(.ARM.Collect$$_printf_percent$$00000009)
    .ARM.Collect$$_printf_percent$$0000000C  0x08000242   Section        6  _printf_x.o(.ARM.Collect$$_printf_percent$$0000000C)
    .ARM.Collect$$_printf_percent$$00000014  0x08000248   Section        6  _printf_s.o(.ARM.Collect$$_printf_percent$$00000014)
    .ARM.Collect$$_printf_percent$$00000017  0x0800024e   Section        4  _printf_percent_end.o(.ARM.Collect$$_printf_percent$$00000017)
    .ARM.Collect$$libinit$$00000000          0x08000252   Section        2  libinit.o(.ARM.Collect$$libinit$$00000000)
    .ARM.Collect$$libinit$$00000001          0x08000254   Section        4  libinit2.o(.ARM.Collect$$libinit$$00000001)
    .ARM.Collect$$libinit$$00000004          0x08000258   Section        0  libinit2.o(.ARM.Collect$$libinit$$00000004)
    .ARM.Collect$$libinit$$0000000A          0x08000258   Section        0  libinit2.o(.ARM.Collect$$libinit$$0000000A)
    .ARM.Collect$$libinit$$0000000C          0x08000258   Section        0  libinit2.o(.ARM.Collect$$libinit$$0000000C)
    .ARM.Collect$$libinit$$0000000E          0x08000258   Section        0  libinit2.o(.ARM.Collect$$libinit$$0000000E)
    .ARM.Collect$$libinit$$00000011          0x08000258   Section        0  libinit2.o(.ARM.Collect$$libinit$$00000011)
    .ARM.Collect$$libinit$$00000013          0x08000258   Section        0  libinit2.o(.ARM.Collect$$libinit$$00000013)
    .ARM.Collect$$libinit$$00000015          0x08000258   Section        0  libinit2.o(.ARM.Collect$$libinit$$00000015)
    .ARM.Collect$$libinit$$00000017          0x08000258   Section        0  libinit2.o(.ARM.Collect$$libinit$$00000017)
    .ARM.Collect$$libinit$$00000019          0x08000258   Section        0  libinit2.o(.ARM.Collect$$libinit$$00000019)
    .ARM.Collect$$libinit$$0000001B          0x08000258   Section        0  libinit2.o(.ARM.Collect$$libinit$$0000001B)
    .ARM.Collect$$libinit$$0000001D          0x08000258   Section        0  libinit2.o(.ARM.Collect$$libinit$$0000001D)
    .ARM.Collect$$libinit$$0000001F          0x08000258   Section        0  libinit2.o(.ARM.Collect$$libinit$$0000001F)
    .ARM.Collect$$libinit$$00000021          0x08000258   Section        0  libinit2.o(.ARM.Collect$$libinit$$00000021)
    .ARM.Collect$$libinit$$00000023          0x08000258   Section        0  libinit2.o(.ARM.Collect$$libinit$$00000023)
    .ARM.Collect$$libinit$$00000025          0x08000258   Section        0  libinit2.o(.ARM.Collect$$libinit$$00000025)
    .ARM.Collect$$libinit$$0000002C          0x08000258   Section        0  libinit2.o(.ARM.Collect$$libinit$$0000002C)
    .ARM.Collect$$libinit$$0000002E          0x08000258   Section        0  libinit2.o(.ARM.Collect$$libinit$$0000002E)
    .ARM.Collect$$libinit$$00000030          0x08000258   Section        0  libinit2.o(.ARM.Collect$$libinit$$00000030)
    .ARM.Collect$$libinit$$00000032          0x08000258   Section        0  libinit2.o(.ARM.Collect$$libinit$$00000032)
    .ARM.Collect$$libinit$$00000033          0x08000258   Section        2  libinit2.o(.ARM.Collect$$libinit$$00000033)
    .ARM.Collect$$libshutdown$$00000000      0x0800025a   Section        2  libshutdown.o(.ARM.Collect$$libshutdown$$00000000)
    .ARM.Collect$$libshutdown$$00000002      0x0800025c   Section        0  libshutdown2.o(.ARM.Collect$$libshutdown$$00000002)
    .ARM.Collect$$libshutdown$$00000004      0x0800025c   Section        0  libshutdown2.o(.ARM.Collect$$libshutdown$$00000004)
    .ARM.Collect$$libshutdown$$00000007      0x0800025c   Section        0  libshutdown2.o(.ARM.Collect$$libshutdown$$00000007)
    .ARM.Collect$$libshutdown$$0000000A      0x0800025c   Section        0  libshutdown2.o(.ARM.Collect$$libshutdown$$0000000A)
    .ARM.Collect$$libshutdown$$0000000C      0x0800025c   Section        0  libshutdown2.o(.ARM.Collect$$libshutdown$$0000000C)
    .ARM.Collect$$libshutdown$$0000000F      0x0800025c   Section        0  libshutdown2.o(.ARM.Collect$$libshutdown$$0000000F)
    .ARM.Collect$$libshutdown$$00000010      0x0800025c   Section        2  libshutdown2.o(.ARM.Collect$$libshutdown$$00000010)
    .ARM.Collect$$rtentry$$00000000          0x0800025e   Section        0  __rtentry.o(.ARM.Collect$$rtentry$$00000000)
    .ARM.Collect$$rtentry$$00000002          0x0800025e   Section        0  __rtentry2.o(.ARM.Collect$$rtentry$$00000002)
    .ARM.Collect$$rtentry$$00000004          0x0800025e   Section        6  __rtentry4.o(.ARM.Collect$$rtentry$$00000004)
    .ARM.Collect$$rtentry$$00000009          0x08000264   Section        0  __rtentry2.o(.ARM.Collect$$rtentry$$00000009)
    .ARM.Collect$$rtentry$$0000000A          0x08000264   Section        4  __rtentry2.o(.ARM.Collect$$rtentry$$0000000A)
    .ARM.Collect$$rtentry$$0000000C          0x08000268   Section        0  __rtentry2.o(.ARM.Collect$$rtentry$$0000000C)
    .ARM.Collect$$rtentry$$0000000D          0x08000268   Section        8  __rtentry2.o(.ARM.Collect$$rtentry$$0000000D)
    .ARM.Collect$$rtexit$$00000000           0x08000270   Section        2  rtexit.o(.ARM.Collect$$rtexit$$00000000)
    .ARM.Collect$$rtexit$$00000002           0x08000272   Section        0  rtexit2.o(.ARM.Collect$$rtexit$$00000002)
    .ARM.Collect$$rtexit$$00000003           0x08000272   Section        4  rtexit2.o(.ARM.Collect$$rtexit$$00000003)
    .ARM.Collect$$rtexit$$00000004           0x08000276   Section        6  rtexit2.o(.ARM.Collect$$rtexit$$00000004)
    .text                                    0x0800027c   Section        0  main.o(.text)
    .text                                    0x080002d8   Section        0  stm32f4xx_it.o(.text)
    .text                                    0x080002f4   Section        0  system_stm32f4xx.o(.text)
    SetSysClock                              0x080002f5   Thumb Code   220  system_stm32f4xx.o(.text)
    .text                                    0x08000504   Section        0  led.o(.text)
    .text                                    0x08000544   Section        0  lcd.o(.text)
    .text                                    0x080051c4   Section        0  key.o(.text)
    .text                                    0x080052c8   Section        0  myiic.o(.text)
    .text                                    0x08005524   Section        0  24cxx.o(.text)
    .text                                    0x080056a0   Section        0  ctiic.o(.text)
    .text                                    0x080058f4   Section        0  gt9147.o(.text)
    .text                                    0x08005d24   Section        0  ott2001a.o(.text)
    .text                                    0x080060ac   Section        0  ft5206.o(.text)
    .text                                    0x080063d8   Section        0  touch.o(.text)
    .text                                    0x080074b8   Section        0  timer.o(.text)
    .text                                    0x08007534   Section        0  sram.o(.text)
    .text                                    0x0800782c   Section        0  delay.o(.text)
    .text                                    0x08007930   Section        0  usart.o(.text)
    .text                                    0x08007a78   Section       64  startup_stm32f40_41xxx.o(.text)
    $v0                                      0x08007a78   Number         0  startup_stm32f40_41xxx.o(.text)
    .text                                    0x08007ab8   Section        0  misc.o(.text)
    .text                                    0x08007b98   Section        0  stm32f4xx_gpio.o(.text)
    .text                                    0x08007e2c   Section        0  stm32f4xx_fsmc.o(.text)
    .text                                    0x080083f4   Section        0  stm32f4xx_rcc.o(.text)
    .text                                    0x08008a50   Section        0  stm32f4xx_usart.o(.text)
    .text                                    0x08008ea4   Section        0  stm32f4xx_tim.o(.text)
    TI4_Config                               0x08009643   Thumb Code    80  stm32f4xx_tim.o(.text)
    TI3_Config                               0x080096a5   Thumb Code    72  stm32f4xx_tim.o(.text)
    TI2_Config                               0x08009707   Thumb Code    90  stm32f4xx_tim.o(.text)
    TI1_Config                               0x08009773   Thumb Code    58  stm32f4xx_tim.o(.text)
    .text                                    0x08009b48   Section        0  lv_disp.o(.text)
    opa_scale_anim                           0x08009cbf   Thumb Code    40  lv_disp.o(.text)
    scr_anim_ready                           0x08009ce7   Thumb Code    56  lv_disp.o(.text)
    scr_load_anim_start                      0x08009d1f   Thumb Code    26  lv_disp.o(.text)
    lv_anim_set_var                          0x0800a043   Thumb Code     4  lv_disp.o(.text)
    lv_anim_set_exec_cb                      0x0800a047   Thumb Code     4  lv_disp.o(.text)
    lv_anim_set_time                         0x0800a04b   Thumb Code     4  lv_disp.o(.text)
    lv_anim_set_delay                        0x0800a04f   Thumb Code     6  lv_disp.o(.text)
    lv_anim_set_values                       0x0800a055   Thumb Code     8  lv_disp.o(.text)
    lv_scr_act                               0x0800a05d   Thumb Code    14  lv_disp.o(.text)
    .text                                    0x0800a080   Section        0  lv_group.o(.text)
    obj_to_foreground                        0x0800a149   Thumb Code    44  lv_group.o(.text)
    focus_next_core                          0x0800a175   Thumb Code   242  lv_group.o(.text)
    lv_group_refocus                         0x0800a287   Thumb Code    60  lv_group.o(.text)
    .text                                    0x0800a630   Section        0  lv_indev.o(.text)
    indev_proc_reset_query_handler           0x0800a6b1   Thumb Code   112  lv_indev.o(.text)
    indev_reset_check                        0x0800a721   Thumb Code    28  lv_indev.o(.text)
    get_dragged_obj                          0x0800a73d   Thumb Code    38  lv_indev.o(.text)
    indev_drag_throw                         0x0800a763   Thumb Code   426  lv_indev.o(.text)
    indev_proc_release                       0x0800a90d   Thumb Code   436  lv_indev.o(.text)
    indev_gesture                            0x0800aac1   Thumb Code   340  lv_indev.o(.text)
    indev_drag                               0x0800ac15   Thumb Code   854  lv_indev.o(.text)
    indev_click_focus                        0x0800af6b   Thumb Code   390  lv_indev.o(.text)
    indev_proc_press                         0x0800b163   Thumb Code  1004  lv_indev.o(.text)
    indev_button_proc                        0x0800b54f   Thumb Code    94  lv_indev.o(.text)
    indev_encoder_proc                       0x0800b5ad   Thumb Code  1170  lv_indev.o(.text)
    indev_keypad_proc                        0x0800ba3f   Thumb Code   822  lv_indev.o(.text)
    indev_pointer_proc                       0x0800bd75   Thumb Code    90  lv_indev.o(.text)
    .text                                    0x0800c098   Section        0  lv_obj.o(.text)
    _lv_memcpy_small                         0x0800c099   Thumb Code    24  lv_obj.o(.text)
    lv_color_hex                             0x0800c0b1   Thumb Code    66  lv_obj.o(.text)
    style_prop_is_cacheble                   0x0800c3cd   Thumb Code   254  lv_obj.o(.text)
    update_style_cache                       0x0800c4cb   Thumb Code   754  lv_obj.o(.text)
    lv_obj_get_style_radius                  0x0800ca05   Thumb Code    18  lv_obj.o(.text)
    refresh_children_style                   0x0800ccbd   Thumb Code    60  lv_obj.o(.text)
    update_style_cache_children              0x0800ccf9   Thumb Code   242  lv_obj.o(.text)
    invalidate_style_cache                   0x0800cdeb   Thumb Code   162  lv_obj.o(.text)
    trans_del                                0x0800d01b   Thumb Code   126  lv_obj.o(.text)
    refresh_children_position                0x0800d285   Thumb Code    80  lv_obj.o(.text)
    lv_obj_design                            0x0800d757   Thumb Code   552  lv_obj.o(.text)
    trans_anim_ready_cb                      0x0800d9a9   Thumb Code   112  lv_obj.o(.text)
    trans_anim_start_cb                      0x0800da19   Thumb Code   112  lv_obj.o(.text)
    trans_anim_cb                            0x0800da89   Thumb Code   228  lv_obj.o(.text)
    trans_create                             0x0800db95   Thumb Code   804  lv_obj.o(.text)
    obj_align_core                           0x0800e1dd   Thumb Code   156  lv_obj.o(.text)
    obj_align_mid_core                       0x0800e31f   Thumb Code   706  lv_obj.o(.text)
    lv_obj_signal                            0x0800e99b   Thumb Code   292  lv_obj.o(.text)
    lv_event_mark_deleted                    0x0800ee97   Thumb Code    26  lv_obj.o(.text)
    obj_del_core                             0x0800ef9f   Thumb Code   236  lv_obj.o(.text)
    lv_obj_del_async_cb                      0x0800f0ff   Thumb Code    38  lv_obj.o(.text)
    report_style_mod_core                    0x0800f93b   Thumb Code   172  lv_obj.o(.text)
    base_dir_refr_children                   0x0800fd39   Thumb Code    60  lv_obj.o(.text)
    fade_in_anim_ready                       0x08010813   Thumb Code    24  lv_obj.o(.text)
    opa_scale_anim                           0x0801082b   Thumb Code    40  lv_obj.o(.text)
    obj_valid_child                          0x08010927   Thumb Code    62  lv_obj.o(.text)
    lv_area_copy                             0x080109bd   Thumb Code    18  lv_obj.o(.text)
    lv_area_get_width                        0x080109cf   Thumb Code    14  lv_obj.o(.text)
    lv_area_get_height                       0x080109dd   Thumb Code    14  lv_obj.o(.text)
    lv_color_mix                             0x080109eb   Thumb Code   158  lv_obj.o(.text)
    lv_anim_set_var                          0x08010a89   Thumb Code     4  lv_obj.o(.text)
    lv_anim_set_exec_cb                      0x08010a8d   Thumb Code     4  lv_obj.o(.text)
    lv_anim_set_time                         0x08010a91   Thumb Code     4  lv_obj.o(.text)
    lv_anim_set_delay                        0x08010a95   Thumb Code     6  lv_obj.o(.text)
    lv_anim_set_values                       0x08010a9b   Thumb Code     8  lv_obj.o(.text)
    lv_anim_set_ready_cb                     0x08010aa3   Thumb Code     4  lv_obj.o(.text)
    lv_obj_get_style_shadow_blend_mode       0x08010aa7   Thumb Code    20  lv_obj.o(.text)
    lv_obj_get_style_image_blend_mode        0x08010abb   Thumb Code    22  lv_obj.o(.text)
    lv_obj_get_style_line_blend_mode         0x08010ad1   Thumb Code    20  lv_obj.o(.text)
    lv_obj_get_style_text_blend_mode         0x08010ae5   Thumb Code    22  lv_obj.o(.text)
    lv_obj_get_style_value_blend_mode        0x08010afb   Thumb Code    20  lv_obj.o(.text)
    lv_obj_get_style_outline_blend_mode      0x08010b0f   Thumb Code    20  lv_obj.o(.text)
    lv_obj_get_style_pattern_blend_mode      0x08010b23   Thumb Code    20  lv_obj.o(.text)
    lv_obj_get_style_border_blend_mode       0x08010b37   Thumb Code    20  lv_obj.o(.text)
    lv_obj_get_style_bg_blend_mode           0x08010b4b   Thumb Code    20  lv_obj.o(.text)
    lv_obj_get_style_pad_right               0x08010b5f   Thumb Code    18  lv_obj.o(.text)
    lv_obj_get_style_pad_left                0x08010b71   Thumb Code    18  lv_obj.o(.text)
    lv_obj_get_style_pad_bottom              0x08010b83   Thumb Code    18  lv_obj.o(.text)
    lv_obj_get_style_pad_top                 0x08010b95   Thumb Code    18  lv_obj.o(.text)
    lv_obj_get_style_transform_height        0x08010ba7   Thumb Code    18  lv_obj.o(.text)
    lv_obj_get_style_transform_width         0x08010bb9   Thumb Code    18  lv_obj.o(.text)
    lv_obj_get_style_value_str               0x08010bcb   Thumb Code    18  lv_obj.o(.text)
    lv_obj_get_style_shadow_width            0x08010bdd   Thumb Code    18  lv_obj.o(.text)
    lv_obj_get_style_pattern_image           0x08010bef   Thumb Code    18  lv_obj.o(.text)
    lv_obj_get_style_outline_width           0x08010c01   Thumb Code    18  lv_obj.o(.text)
    lv_obj_get_style_image_recolor_opa       0x08010c13   Thumb Code    20  lv_obj.o(.text)
    lv_obj_get_style_clip_corner             0x08010c27   Thumb Code    26  lv_obj.o(.text)
    lv_obj_get_style_border_post             0x08010c41   Thumb Code    36  lv_obj.o(.text)
    lv_obj_get_style_border_side             0x08010c65   Thumb Code    20  lv_obj.o(.text)
    lv_obj_get_style_border_width            0x08010c79   Thumb Code    18  lv_obj.o(.text)
    lv_obj_get_style_bg_grad_dir             0x08010c8b   Thumb Code    20  lv_obj.o(.text)
    lv_obj_get_style_bg_opa                  0x08010c9f   Thumb Code    18  lv_obj.o(.text)
    lv_obj_get_style_text_line_space         0x08010cb1   Thumb Code    20  lv_obj.o(.text)
    lv_obj_get_style_text_letter_space       0x08010cc5   Thumb Code    20  lv_obj.o(.text)
    lv_obj_get_style_text_font               0x08010cd9   Thumb Code    20  lv_obj.o(.text)
    lv_obj_get_style_text_decor              0x08010ced   Thumb Code    22  lv_obj.o(.text)
    lv_obj_get_style_opa_scale               0x08010d03   Thumb Code    20  lv_obj.o(.text)
    lv_obj_get_style_pad_inner               0x08010d17   Thumb Code    18  lv_obj.o(.text)
    lv_obj_get_style_margin_top              0x08010d29   Thumb Code    18  lv_obj.o(.text)
    lv_obj_get_style_margin_bottom           0x08010d3b   Thumb Code    18  lv_obj.o(.text)
    lv_obj_get_style_margin_left             0x08010d4d   Thumb Code    18  lv_obj.o(.text)
    lv_obj_get_style_margin_right            0x08010d5f   Thumb Code    18  lv_obj.o(.text)
    lv_obj_get_style_outline_pad             0x08010d71   Thumb Code    18  lv_obj.o(.text)
    lv_obj_get_style_outline_opa             0x08010d83   Thumb Code    18  lv_obj.o(.text)
    lv_obj_get_style_shadow_ofs_x            0x08010d95   Thumb Code    18  lv_obj.o(.text)
    lv_obj_get_style_shadow_ofs_y            0x08010da7   Thumb Code    18  lv_obj.o(.text)
    lv_obj_get_style_shadow_spread           0x08010db9   Thumb Code    18  lv_obj.o(.text)
    lv_obj_get_style_shadow_opa              0x08010dcb   Thumb Code    18  lv_obj.o(.text)
    lv_obj_get_style_pattern_recolor         0x08010ddd   Thumb Code    26  lv_obj.o(.text)
    lv_obj_get_style_value_letter_space      0x08010df7   Thumb Code    18  lv_obj.o(.text)
    lv_obj_get_style_value_ofs_x             0x08010e09   Thumb Code    18  lv_obj.o(.text)
    lv_obj_get_style_value_ofs_y             0x08010e1b   Thumb Code    18  lv_obj.o(.text)
    lv_obj_get_style_value_align             0x08010e2d   Thumb Code    20  lv_obj.o(.text)
    lv_obj_get_style_value_opa               0x08010e41   Thumb Code    18  lv_obj.o(.text)
    lv_obj_get_style_value_font              0x08010e53   Thumb Code    18  lv_obj.o(.text)
    .text                                    0x08010e64   Section        0  lv_refr.o(.text)
    lv_area_copy                             0x08010e65   Thumb Code    34  lv_refr.o(.text)
    lv_refr_vdb_flush                        0x08010e8f   Thumb Code   142  lv_refr.o(.text)
    lv_refr_obj                              0x08010f1d   Thumb Code   264  lv_refr.o(.text)
    lv_refr_obj_and_children                 0x08011025   Thumb Code   114  lv_refr.o(.text)
    lv_refr_get_top_obj                      0x08011097   Thumb Code   140  lv_refr.o(.text)
    lv_refr_area_part                        0x08011123   Thumb Code   354  lv_refr.o(.text)
    lv_refr_area                             0x08011285   Thumb Code   412  lv_refr.o(.text)
    lv_refr_areas                            0x08011421   Thumb Code   236  lv_refr.o(.text)
    lv_refr_join_area                        0x0801150d   Thumb Code   214  lv_refr.o(.text)
    lv_area_get_width                        0x080118e7   Thumb Code    14  lv_refr.o(.text)
    lv_area_get_height                       0x080118f5   Thumb Code    14  lv_refr.o(.text)
    .text                                    0x0801190c   Section        0  lv_style.o(.text)
    _lv_memcpy_small                         0x0801190d   Thumb Code    24  lv_style.o(.text)
    lv_style_list_get_style                  0x08011925   Thumb Code    52  lv_style.o(.text)
    get_prop_size                            0x08011967   Thumb Code    36  lv_style.o(.text)
    get_style_prop                           0x0801198b   Thumb Code    26  lv_style.o(.text)
    get_property_index                       0x08011a01   Thumb Code   120  lv_style.o(.text)
    get_alloc_local_style                    0x08011c83   Thumb Code    94  lv_style.o(.text)
    get_next_prop_index                      0x0801268b   Thumb Code    16  lv_style.o(.text)
    get_style_prop_id                        0x0801269b   Thumb Code    18  lv_style.o(.text)
    style_resize                             0x080126ad   Thumb Code    18  lv_style.o(.text)
    get_style_prop_attr                      0x080126bf   Thumb Code    18  lv_style.o(.text)
    .text                                    0x080126d0   Section        0  lv_draw_blend.o(.text)
    lv_color_mix                             0x080126d1   Thumb Code   158  lv_draw_blend.o(.text)
    fill_blended                             0x0801276f   Thumb Code   346  lv_draw_blend.o(.text)
    fill_normal                              0x080128c9   Thumb Code   924  lv_draw_blend.o(.text)
    fill_set_px                              0x08012c65   Thumb Code   204  lv_draw_blend.o(.text)
    map_blended                              0x08012e33   Thumb Code   368  lv_draw_blend.o(.text)
    map_normal                               0x08012fa3   Thumb Code   938  lv_draw_blend.o(.text)
    map_set_px                               0x0801334d   Thumb Code   284  lv_draw_blend.o(.text)
    lv_color_mix_premult                     0x08013573   Thumb Code   126  lv_draw_blend.o(.text)
    lv_area_get_width                        0x080135f1   Thumb Code    14  lv_draw_blend.o(.text)
    lv_area_get_height                       0x080135ff   Thumb Code    14  lv_draw_blend.o(.text)
    color_blend_true_color_subtractive       0x0801360d   Thumb Code   162  lv_draw_blend.o(.text)
    color_blend_true_color_additive          0x080136af   Thumb Code   162  lv_draw_blend.o(.text)
    .text                                    0x08013758   Section        0  lv_draw_img.o(.text)
    _lv_memcpy_small                         0x08013759   Thumb Code    24  lv_draw_img.o(.text)
    _lv_img_buf_transform                    0x08013771   Thumb Code   458  lv_draw_img.o(.text)
    show_error                               0x0801395f   Thumb Code    68  lv_draw_img.o(.text)
    lv_draw_map                              0x080139a3   Thumb Code  1420  lv_draw_img.o(.text)
    lv_img_draw_core                         0x08013f95   Thumb Code   472  lv_draw_img.o(.text)
    lv_color_mix_premult                     0x08014227   Thumb Code   126  lv_draw_img.o(.text)
    lv_area_copy                             0x080142a5   Thumb Code    18  lv_draw_img.o(.text)
    lv_area_get_width                        0x080142b7   Thumb Code    14  lv_draw_img.o(.text)
    lv_area_get_height                       0x080142c5   Thumb Code    14  lv_draw_img.o(.text)
    .text                                    0x080142dc   Section        0  lv_draw_label.o(.text)
    draw_letter_normal                       0x08014315   Thumb Code   776  lv_draw_label.o(.text)
    draw_letter_subpx                        0x0801461d   Thumb Code  1156  lv_draw_label.o(.text)
    lv_draw_letter                           0x08014aa1   Thumb Code   254  lv_draw_label.o(.text)
    hex_char_to_num                          0x08014b9f   Thumb Code    80  lv_draw_label.o(.text)
    lv_area_get_width                        0x08015207   Thumb Code    14  lv_draw_label.o(.text)
    .text                                    0x08015220   Section        0  lv_draw_line.o(.text)
    draw_line_skew                           0x08015241   Thumb Code  1220  lv_draw_line.o(.text)
    draw_line_ver                            0x08015705   Thumb Code   580  lv_draw_line.o(.text)
    draw_line_hor                            0x08015949   Thumb Code   608  lv_draw_line.o(.text)
    lv_area_get_width                        0x08015d9d   Thumb Code    14  lv_draw_line.o(.text)
    .text                                    0x08015dac   Section        0  lv_draw_mask.o(.text)
    lv_area_copy                             0x08015dad   Thumb Code    34  lv_draw_mask.o(.text)
    mask_mix                                 0x08015ec7   Thumb Code    36  lv_draw_mask.o(.text)
    line_mask_steep                          0x08015eeb   Thumb Code   676  lv_draw_mask.o(.text)
    line_mask_flat                           0x0801618f   Thumb Code   488  lv_draw_mask.o(.text)
    lv_draw_mask_line                        0x08016377   Thumb Code   300  lv_draw_mask.o(.text)
    lv_draw_mask_angle                       0x08016681   Thumb Code  1072  lv_draw_mask.o(.text)
    lv_draw_mask_radius                      0x08016b95   Thumb Code  1448  lv_draw_mask.o(.text)
    lv_draw_mask_fade                        0x08017197   Thumb Code   260  lv_draw_mask.o(.text)
    lv_draw_mask_map                         0x080172cd   Thumb Code   174  lv_draw_mask.o(.text)
    lv_area_get_width                        0x08017399   Thumb Code    14  lv_draw_mask.o(.text)
    lv_area_get_height                       0x080173a7   Thumb Code    14  lv_draw_mask.o(.text)
    .text                                    0x080173c0   Section        0  lv_draw_rect.o(.text)
    lv_area_copy                             0x080173c1   Thumb Code    34  lv_draw_rect.o(.text)
    draw_full_border                         0x0801745b   Thumb Code  1214  lv_draw_rect.o(.text)
    draw_outline                             0x08017919   Thumb Code   194  lv_draw_rect.o(.text)
    draw_value_str                           0x080179db   Thumb Code   242  lv_draw_rect.o(.text)
    draw_border                              0x08017acd   Thumb Code   824  lv_draw_rect.o(.text)
    draw_pattern                             0x08017e05   Thumb Code   680  lv_draw_rect.o(.text)
    grad_get                                 0x080180ad   Thumb Code   128  lv_draw_rect.o(.text)
    draw_bg                                  0x0801812d   Thumb Code  1330  lv_draw_rect.o(.text)
    shadow_blur_corner                       0x0801865f   Thumb Code   372  lv_draw_rect.o(.text)
    shadow_draw_corner_buf                   0x080187d3   Thumb Code   452  lv_draw_rect.o(.text)
    draw_shadow                              0x08018997   Thumb Code  3808  lv_draw_rect.o(.text)
    lv_area_get_width                        0x080198d7   Thumb Code    14  lv_draw_rect.o(.text)
    lv_area_get_height                       0x080198e5   Thumb Code    14  lv_draw_rect.o(.text)
    lv_color_mix                             0x080198f3   Thumb Code   158  lv_draw_rect.o(.text)
    .text                                    0x08019990   Section        0  lv_img_buf.o(.text)
    lv_color_mix                             0x08019991   Thumb Code   158  lv_img_buf.o(.text)
    _lv_memcpy_small                         0x08019a2f   Thumb Code    24  lv_img_buf.o(.text)
    .text                                    0x0801a938   Section        0  lv_img_cache.o(.text)
    .text                                    0x0801abb4   Section        0  lv_img_decoder.o(.text)
    lv_img_decoder_built_in_line_indexed     0x0801abe3   Thumb Code   388  lv_img_decoder.o(.text)
    lv_img_decoder_built_in_line_alpha       0x0801ad67   Thumb Code   416  lv_img_decoder.o(.text)
    lv_img_decoder_built_in_line_true_color  0x0801af07   Thumb Code    10  lv_img_decoder.o(.text)
    .text                                    0x0801b444   Section        0  lv_font.o(.text)
    .text                                    0x0801b494   Section        0  lv_font_fmt_txt.o(.text)
    bits_write                               0x0801b495   Thumb Code   104  lv_font_fmt_txt.o(.text)
    get_bits                                 0x0801b4fd   Thumb Code   108  lv_font_fmt_txt.o(.text)
    rle_next                                 0x0801b569   Thumb Code   340  lv_font_fmt_txt.o(.text)
    decompress_line                          0x0801b6bd   Thumb Code    26  lv_font_fmt_txt.o(.text)
    decompress                               0x0801b6d7   Thumb Code   238  lv_font_fmt_txt.o(.text)
    unicode_list_compare                     0x0801b7c5   Thumb Code    10  lv_font_fmt_txt.o(.text)
    get_glyph_dsc_id                         0x0801b7cf   Thumb Code   430  lv_font_fmt_txt.o(.text)
    kern_pair_16_compare                     0x0801ba8d   Thumb Code    32  lv_font_fmt_txt.o(.text)
    kern_pair_8_compare                      0x0801baad   Thumb Code    32  lv_font_fmt_txt.o(.text)
    get_kern_value                           0x0801bacd   Thumb Code   204  lv_font_fmt_txt.o(.text)
    .text                                    0x0801bc88   Section        0  lv_hal_disp.o(.text)
    .text                                    0x0801c058   Section        0  lv_hal_indev.o(.text)
    .text                                    0x0801c188   Section        0  lv_hal_tick.o(.text)
    .text                                    0x0801c1d4   Section        0  lv_anim.o(.text)
    anim_mark_list_change                    0x0801c1d5   Thumb Code    40  lv_anim.o(.text)
    anim_ready_handler                       0x0801c1fd   Thumb Code   180  lv_anim.o(.text)
    anim_task                                0x0801c2e1   Thumb Code   244  lv_anim.o(.text)
    .text                                    0x0801c7f6   Section        0  lv_area.o(.text)
    lv_point_within_circle                   0x0801c957   Thumb Code    80  lv_area.o(.text)
    lv_area_get_width                        0x0801cf8d   Thumb Code    14  lv_area.o(.text)
    lv_area_get_height                       0x0801cf9b   Thumb Code    14  lv_area.o(.text)
    .text                                    0x0801cfa8   Section        0  lv_async.o(.text)
    lv_async_task_cb                         0x0801cfa9   Thumb Code    20  lv_async.o(.text)
    .text                                    0x0801d004   Section        0  lv_color.o(.text)
    lv_color_mix                             0x0801d005   Thumb Code   158  lv_color.o(.text)
    lv_color_make                            0x0801d0a3   Thumb Code    48  lv_color.o(.text)
    .text                                    0x0801d3f0   Section        0  lv_debug.o(.text)
    .text                                    0x0801d4d8   Section        0  lv_gc.o(.text)
    .text                                    0x0801d5a8   Section        0  lv_ll.o(.text)
    node_set_prev                            0x0801d5b9   Thumb Code    26  lv_ll.o(.text)
    node_set_next                            0x0801d5d3   Thumb Code    28  lv_ll.o(.text)
    .text                                    0x0801d8ec   Section        0  lv_math.o(.text)
    .text                                    0x0801db00   Section        0  lv_mem.o(.text)
    ent_trunc                                0x0801dbbd   Thumb Code    70  lv_mem.o(.text)
    ent_alloc                                0x0801dc03   Thumb Code    48  lv_mem.o(.text)
    ent_get_next                             0x0801dc33   Thumb Code    42  lv_mem.o(.text)
    .text                                    0x0801e480   Section        0  lv_printf.o(.text)
    _atoi                                    0x0801e481   Thumb Code    42  lv_printf.o(.text)
    _out_rev                                 0x0801e4ab   Thumb Code   116  lv_printf.o(.text)
    _ntoa_format                             0x0801e51f   Thumb Code   282  lv_printf.o(.text)
    _ntoa_long                               0x0801e639   Thumb Code   124  lv_printf.o(.text)
    _ntoa_long_long                          0x0801e6b5   Thumb Code   184  lv_printf.o(.text)
    _vsnprintf                               0x0801e76d   Thumb Code  1498  lv_printf.o(.text)
    _out_buffer                              0x0801ed8f   Thumb Code     8  lv_printf.o(.text)
    _out_null                                0x0801ed97   Thumb Code     2  lv_printf.o(.text)
    _is_digit                                0x0801ed99   Thumb Code    18  lv_printf.o(.text)
    .text                                    0x0801edb0   Section        0  lv_task.o(.text)
    lv_task_time_remaining                   0x0801edcf   Thumb Code    28  lv_task.o(.text)
    lv_task_exec                             0x0801ee13   Thumb Code    74  lv_task.o(.text)
    .text                                    0x0801f234   Section        0  lv_txt.o(.text)
    _lv_memcpy_small                         0x0801f235   Thumb Code    24  lv_txt.o(.text)
    lv_txt_get_next_word                     0x0801f31b   Thumb Code   326  lv_txt.o(.text)
    lv_txt_utf8_size                         0x0801f6d3   Thumb Code    60  lv_txt.o(.text)
    lv_txt_unicode_to_utf8                   0x0801f70f   Thumb Code   164  lv_txt.o(.text)
    lv_txt_utf8_conv_wc                      0x0801f7b3   Thumb Code    76  lv_txt.o(.text)
    lv_txt_utf8_next                         0x0801f7ff   Thumb Code   328  lv_txt.o(.text)
    lv_txt_utf8_prev                         0x0801f947   Thumb Code    86  lv_txt.o(.text)
    lv_txt_utf8_get_byte_id                  0x0801f99d   Thumb Code    50  lv_txt.o(.text)
    lv_txt_utf8_get_char_id                  0x0801f9cf   Thumb Code    36  lv_txt.o(.text)
    lv_txt_utf8_get_length                   0x0801f9f3   Thumb Code    36  lv_txt.o(.text)
    .text                                    0x0801fa24   Section        0  lv_utils.o(.text)
    .text                                    0x0801faf8   Section        0  lv_theme.o(.text)
    apply_theme                              0x0801fb05   Thumb Code    54  lv_theme.o(.text)
    clear_styles                             0x0801fb3b   Thumb Code   858  lv_theme.o(.text)
    .text                                    0x0801ff48   Section        0  lv_theme_material.o(.text)
    lv_color_mix                             0x0801ff49   Thumb Code   158  lv_theme_material.o(.text)
    lv_color_make                            0x0801ffe7   Thumb Code    48  lv_theme_material.o(.text)
    lv_color_hex                             0x08020017   Thumb Code    28  lv_theme_material.o(.text)
    lv_color_hex3                            0x08020033   Thumb Code    56  lv_theme_material.o(.text)
    style_init_reset                         0x0802006b   Thumb Code    26  lv_theme_material.o(.text)
    basic_init                               0x08020085   Thumb Code  4728  lv_theme_material.o(.text)
    cont_init                                0x080212fd   Thumb Code     2  lv_theme_material.o(.text)
    btn_init                                 0x080212ff   Thumb Code     2  lv_theme_material.o(.text)
    label_init                               0x08021301   Thumb Code     2  lv_theme_material.o(.text)
    bar_init                                 0x08021303   Thumb Code   448  lv_theme_material.o(.text)
    img_init                                 0x080214c3   Thumb Code     2  lv_theme_material.o(.text)
    line_init                                0x080214c5   Thumb Code     2  lv_theme_material.o(.text)
    led_init                                 0x080214c7   Thumb Code   292  lv_theme_material.o(.text)
    slider_init                              0x080215eb   Thumb Code   706  lv_theme_material.o(.text)
    switch_init                              0x080218ad   Thumb Code   332  lv_theme_material.o(.text)
    linemeter_init                           0x080219f9   Thumb Code   554  lv_theme_material.o(.text)
    gauge_init                               0x08021c23   Thumb Code  1220  lv_theme_material.o(.text)
    arc_init                                 0x080220e7   Thumb Code   348  lv_theme_material.o(.text)
    spinner_init                             0x08022243   Thumb Code     2  lv_theme_material.o(.text)
    chart_init                               0x08022245   Thumb Code   592  lv_theme_material.o(.text)
    calendar_init                            0x08022495   Thumb Code  1822  lv_theme_material.o(.text)
    cpicker_init                             0x08022bb3   Thumb Code   650  lv_theme_material.o(.text)
    checkbox_init                            0x08022e3d   Thumb Code   834  lv_theme_material.o(.text)
    btnmatrix_init                           0x0802317f   Thumb Code     2  lv_theme_material.o(.text)
    keyboard_init                            0x08023181   Thumb Code   508  lv_theme_material.o(.text)
    msgbox_init                              0x0802337d   Thumb Code   138  lv_theme_material.o(.text)
    page_init                                0x08023407   Thumb Code   316  lv_theme_material.o(.text)
    textarea_init                            0x08023543   Thumb Code   296  lv_theme_material.o(.text)
    spinbox_init                             0x0802366b   Thumb Code   216  lv_theme_material.o(.text)
    list_init                                0x08023743   Thumb Code  1932  lv_theme_material.o(.text)
    ddlist_init                              0x08023ecf   Thumb Code   274  lv_theme_material.o(.text)
    roller_init                              0x08023fe1   Thumb Code   142  lv_theme_material.o(.text)
    tabview_init                             0x0802406f   Thumb Code     2  lv_theme_material.o(.text)
    tileview_init                            0x08024071   Thumb Code     2  lv_theme_material.o(.text)
    table_init                               0x08024073   Thumb Code   616  lv_theme_material.o(.text)
    win_init                                 0x080242db   Thumb Code     2  lv_theme_material.o(.text)
    tabview_win_shared_init                  0x080242dd   Thumb Code  1514  lv_theme_material.o(.text)
    theme_apply                              0x080248c7   Thumb Code  2220  lv_theme_material.o(.text)
    lv_style_set_radius                      0x08025251   Thumb Code    24  lv_theme_material.o(.text)
    lv_style_set_clip_corner                 0x08025269   Thumb Code    24  lv_theme_material.o(.text)
    lv_style_set_size                        0x08025281   Thumb Code    24  lv_theme_material.o(.text)
    lv_style_set_transform_width             0x08025299   Thumb Code    24  lv_theme_material.o(.text)
    lv_style_set_pad_top                     0x080252b1   Thumb Code    24  lv_theme_material.o(.text)
    lv_style_set_pad_bottom                  0x080252c9   Thumb Code    24  lv_theme_material.o(.text)
    lv_style_set_pad_left                    0x080252e1   Thumb Code    24  lv_theme_material.o(.text)
    lv_style_set_pad_right                   0x080252f9   Thumb Code    24  lv_theme_material.o(.text)
    lv_style_set_pad_inner                   0x08025311   Thumb Code    44  lv_theme_material.o(.text)
    lv_style_set_bg_color                    0x0802533d   Thumb Code    22  lv_theme_material.o(.text)
    lv_style_set_bg_opa                      0x08025353   Thumb Code    24  lv_theme_material.o(.text)
    lv_style_set_border_width                0x0802536b   Thumb Code    24  lv_theme_material.o(.text)
    lv_style_set_border_side                 0x08025383   Thumb Code    24  lv_theme_material.o(.text)
    lv_style_set_border_color                0x0802539b   Thumb Code    22  lv_theme_material.o(.text)
    lv_style_set_border_opa                  0x080253b1   Thumb Code    24  lv_theme_material.o(.text)
    lv_style_set_outline_width               0x080253c9   Thumb Code    24  lv_theme_material.o(.text)
    lv_style_set_outline_pad                 0x080253e1   Thumb Code    24  lv_theme_material.o(.text)
    lv_style_set_outline_color               0x080253f9   Thumb Code    22  lv_theme_material.o(.text)
    lv_style_set_outline_opa                 0x0802540f   Thumb Code    24  lv_theme_material.o(.text)
    lv_style_set_shadow_width                0x08025427   Thumb Code    24  lv_theme_material.o(.text)
    lv_style_set_shadow_color                0x0802543f   Thumb Code    22  lv_theme_material.o(.text)
    lv_style_set_pattern_opa                 0x08025455   Thumb Code    24  lv_theme_material.o(.text)
    lv_style_set_value_color                 0x0802546d   Thumb Code    22  lv_theme_material.o(.text)
    lv_style_set_value_font                  0x08025483   Thumb Code    24  lv_theme_material.o(.text)
    lv_style_set_text_line_space             0x0802549b   Thumb Code    26  lv_theme_material.o(.text)
    lv_style_set_text_color                  0x080254b5   Thumb Code    24  lv_theme_material.o(.text)
    lv_style_set_text_font                   0x080254cd   Thumb Code    26  lv_theme_material.o(.text)
    lv_style_set_line_width                  0x080254e7   Thumb Code    24  lv_theme_material.o(.text)
    lv_style_set_line_rounded                0x080254ff   Thumb Code    24  lv_theme_material.o(.text)
    lv_style_set_line_color                  0x08025517   Thumb Code    22  lv_theme_material.o(.text)
    lv_style_set_image_recolor               0x0802552d   Thumb Code    24  lv_theme_material.o(.text)
    lv_style_set_transition_time             0x08025545   Thumb Code    24  lv_theme_material.o(.text)
    lv_style_set_transition_delay            0x0802555d   Thumb Code    24  lv_theme_material.o(.text)
    lv_style_set_transition_prop_5           0x08025575   Thumb Code    24  lv_theme_material.o(.text)
    lv_style_set_transition_prop_6           0x0802558d   Thumb Code    24  lv_theme_material.o(.text)
    lv_style_set_scale_width                 0x080255a5   Thumb Code    24  lv_theme_material.o(.text)
    lv_style_set_scale_end_line_width        0x080255bd   Thumb Code    24  lv_theme_material.o(.text)
    lv_style_set_scale_grad_color            0x080255d5   Thumb Code    22  lv_theme_material.o(.text)
    lv_style_set_scale_end_color             0x080255eb   Thumb Code    22  lv_theme_material.o(.text)
    .text                                    0x08025600   Section        0  lv_bar.o(.text)
    lv_area_copy                             0x08025601   Thumb Code    34  lv_bar.o(.text)
    lv_bar_anim_ready                        0x08025623   Thumb Code    54  lv_bar.o(.text)
    lv_bar_anim                              0x08025659   Thumb Code    16  lv_bar.o(.text)
    lv_bar_set_value_with_anim               0x08025669   Thumb Code   132  lv_bar.o(.text)
    draw_indic                               0x08025769   Thumb Code  1266  lv_bar.o(.text)
    draw_bg                                  0x08025c5b   Thumb Code    62  lv_bar.o(.text)
    lv_bar_design                            0x08025c99   Thumb Code   170  lv_bar.o(.text)
    lv_bar_get_style                         0x08025d43   Thumb Code    76  lv_bar.o(.text)
    lv_bar_signal                            0x08025d8f   Thumb Code   170  lv_bar.o(.text)
    lv_bar_init_anim                         0x08025e39   Thumb Code    14  lv_bar.o(.text)
    lv_area_get_width                        0x08026271   Thumb Code    14  lv_bar.o(.text)
    lv_area_get_height                       0x0802627f   Thumb Code    14  lv_bar.o(.text)
    lv_obj_get_style_border_post             0x0802628d   Thumb Code    26  lv_bar.o(.text)
    .text                                    0x080262a8   Section        0  lv_btn.o(.text)
    lv_btn_design                            0x080262a9   Thumb Code    62  lv_btn.o(.text)
    lv_btn_signal                            0x080263ab   Thumb Code   252  lv_btn.o(.text)
    .text                                    0x08026694   Section        0  lv_btnmatrix.o(.text)
    lv_area_copy                             0x08026695   Thumb Code    34  lv_btnmatrix.o(.text)
    get_button_width                         0x080266b7   Thumb Code    16  lv_btnmatrix.o(.text)
    allocate_btn_areas_and_controls          0x080266c7   Thumb Code   178  lv_btnmatrix.o(.text)
    maps_are_identical                       0x08026779   Thumb Code    98  lv_btnmatrix.o(.text)
    button_is_inactive                       0x08026b15   Thumb Code     8  lv_btnmatrix.o(.text)
    button_get_tgl_state                     0x08026b1d   Thumb Code     8  lv_btnmatrix.o(.text)
    button_is_hidden                         0x08026b25   Thumb Code     8  lv_btnmatrix.o(.text)
    lv_btnmatrix_design                      0x08026b65   Thumb Code  1062  lv_btnmatrix.o(.text)
    invalidate_button_area                   0x08026f8b   Thumb Code   120  lv_btnmatrix.o(.text)
    button_is_repeat_disabled                0x08027003   Thumb Code     8  lv_btnmatrix.o(.text)
    button_is_click_trig                     0x0802700b   Thumb Code     8  lv_btnmatrix.o(.text)
    make_one_button_toggled                  0x0802714b   Thumb Code    40  lv_btnmatrix.o(.text)
    button_is_tgl_enabled                    0x08027173   Thumb Code     8  lv_btnmatrix.o(.text)
    get_button_from_point                    0x0802717b   Thumb Code   464  lv_btnmatrix.o(.text)
    lv_btnmatrix_get_style                   0x0802734b   Thumb Code    80  lv_btnmatrix.o(.text)
    lv_btnmatrix_signal                      0x0802739b   Thumb Code  1542  lv_btnmatrix.o(.text)
    lv_area_get_width                        0x08027e0d   Thumb Code    14  lv_btnmatrix.o(.text)
    lv_area_get_height                       0x08027e1b   Thumb Code    14  lv_btnmatrix.o(.text)
    lv_obj_get_style_pad_top                 0x08027e29   Thumb Code    18  lv_btnmatrix.o(.text)
    lv_obj_get_style_pad_bottom              0x08027e3b   Thumb Code    18  lv_btnmatrix.o(.text)
    lv_obj_get_style_pad_left                0x08027e4d   Thumb Code    18  lv_btnmatrix.o(.text)
    lv_obj_get_style_pad_right               0x08027e5f   Thumb Code    18  lv_btnmatrix.o(.text)
    lv_obj_get_style_pad_inner               0x08027e71   Thumb Code    18  lv_btnmatrix.o(.text)
    .text                                    0x08027e88   Section        0  lv_checkbox.o(.text)
    lv_checkbox_get_style                    0x08027ebb   Thumb Code    54  lv_checkbox.o(.text)
    lv_checkbox_signal                       0x08027ef1   Thumb Code   346  lv_checkbox.o(.text)
    .text                                    0x080281f4   Section        0  lv_cont.o(.text)
    lv_area_copy                             0x080281f5   Thumb Code    34  lv_cont.o(.text)
    lv_cont_refr_autofit                     0x08028217   Thumb Code  1028  lv_cont.o(.text)
    lv_cont_layout_grid                      0x0802861b   Thumb Code   180  lv_cont.o(.text)
    lv_cont_layout_pretty                    0x080286fd   Thumb Code   736  lv_cont.o(.text)
    lv_cont_layout_row                       0x080289dd   Thumb Code   296  lv_cont.o(.text)
    lv_cont_layout_col                       0x08028b05   Thumb Code   248  lv_cont.o(.text)
    lv_cont_layout_center                    0x08028bfd   Thumb Code   228  lv_cont.o(.text)
    lv_cont_refr_layout                      0x08028ce1   Thumb Code   126  lv_cont.o(.text)
    lv_cont_get_style                        0x08028d5f   Thumb Code    18  lv_cont.o(.text)
    lv_cont_signal                           0x08028d71   Thumb Code   194  lv_cont.o(.text)
    lv_obj_get_style_pad_top                 0x080290eb   Thumb Code    18  lv_cont.o(.text)
    lv_obj_get_style_pad_bottom              0x080290fd   Thumb Code    18  lv_cont.o(.text)
    lv_obj_get_style_pad_left                0x0802910f   Thumb Code    18  lv_cont.o(.text)
    lv_obj_get_style_pad_right               0x08029121   Thumb Code    18  lv_cont.o(.text)
    lv_obj_get_style_pad_inner               0x08029133   Thumb Code    18  lv_cont.o(.text)
    lv_obj_get_style_margin_top              0x08029145   Thumb Code    18  lv_cont.o(.text)
    lv_obj_get_style_margin_bottom           0x08029157   Thumb Code    18  lv_cont.o(.text)
    lv_obj_get_style_margin_left             0x08029169   Thumb Code    56  lv_cont.o(.text)
    lv_obj_get_style_margin_right            0x080291a1   Thumb Code    18  lv_cont.o(.text)
    .text                                    0x080291b4   Section        0  lv_dropdown.o(.text)
    lv_dropdown_design                       0x080293d5   Thumb Code   586  lv_dropdown.o(.text)
    get_label                                0x08029645   Thumb Code    36  lv_dropdown.o(.text)
    position_to_selected                     0x08029669   Thumb Code   130  lv_dropdown.o(.text)
    get_id_on_point                          0x080296eb   Thumb Code   128  lv_dropdown.o(.text)
    page_press_handler                       0x0802976b   Thumb Code    90  lv_dropdown.o(.text)
    page_release_handler                     0x080297c5   Thumb Code   182  lv_dropdown.o(.text)
    lv_dropdown_page_scrl_signal             0x0802987b   Thumb Code   210  lv_dropdown.o(.text)
    lv_dropdown_page_signal                  0x0802994d   Thumb Code   212  lv_dropdown.o(.text)
    draw_box_label                           0x08029a21   Thumb Code   284  lv_dropdown.o(.text)
    draw_box                                 0x08029b3d   Thumb Code   208  lv_dropdown.o(.text)
    lv_dropdown_page_design                  0x08029c0d   Thumb Code   254  lv_dropdown.o(.text)
    lv_dropdown_get_style                    0x0802a031   Thumb Code    96  lv_dropdown.o(.text)
    lv_dropdown_signal                       0x0802a091   Thumb Code   584  lv_dropdown.o(.text)
    lv_font_get_line_height                  0x0802aa33   Thumb Code     8  lv_dropdown.o(.text)
    lv_obj_get_style_pad_top                 0x0802aa3b   Thumb Code    18  lv_dropdown.o(.text)
    lv_obj_get_style_pad_bottom              0x0802aa4d   Thumb Code    18  lv_dropdown.o(.text)
    lv_obj_get_style_pad_left                0x0802aa5f   Thumb Code    18  lv_dropdown.o(.text)
    lv_obj_get_style_pad_right               0x0802aa71   Thumb Code    18  lv_dropdown.o(.text)
    lv_obj_get_style_text_line_space         0x0802aa83   Thumb Code    20  lv_dropdown.o(.text)
    lv_obj_get_style_text_font               0x0802aa97   Thumb Code    20  lv_dropdown.o(.text)
    lv_cont_set_fit2                         0x0802aaab   Thumb Code    24  lv_dropdown.o(.text)
    .text                                    0x0802aac8   Section        0  lv_img.o(.text)
    lv_img_design                            0x0802accb   Thumb Code  1636  lv_img.o(.text)
    lv_img_get_style                         0x0802b32f   Thumb Code    18  lv_img.o(.text)
    lv_img_signal                            0x0802b341   Thumb Code   784  lv_img.o(.text)
    lv_obj_get_style_clip_corner             0x0802bd59   Thumb Code    26  lv_img.o(.text)
    lv_obj_get_style_transform_angle         0x0802bd73   Thumb Code    18  lv_img.o(.text)
    lv_obj_get_style_transform_zoom          0x0802bd85   Thumb Code    18  lv_img.o(.text)
    lv_obj_get_style_pad_top                 0x0802bd97   Thumb Code    18  lv_img.o(.text)
    lv_obj_get_style_pad_bottom              0x0802bda9   Thumb Code    18  lv_img.o(.text)
    lv_obj_get_style_pad_left                0x0802bdbb   Thumb Code    18  lv_img.o(.text)
    lv_obj_get_style_pad_right               0x0802bdcd   Thumb Code    18  lv_img.o(.text)
    lv_obj_get_style_border_post             0x0802bddf   Thumb Code    26  lv_img.o(.text)
    .text                                    0x0802bdf8   Section        0  lv_keyboard.o(.text)
    lv_keyboard_signal                       0x0802c0b3   Thumb Code   126  lv_keyboard.o(.text)
    lv_keyboard_update_map                   0x0802c3a5   Thumb Code    46  lv_keyboard.o(.text)
    .text                                    0x0802c494   Section        0  lv_label.o(.text)
    lv_label_dot_tmp_free                    0x0802c495   Thumb Code    38  lv_label.o(.text)
    lv_label_set_dot_tmp                     0x0802c4bb   Thumb Code    86  lv_label.o(.text)
    get_txt_coords                           0x0802c571   Thumb Code    94  lv_label.o(.text)
    lv_label_set_offset_y                    0x0802c811   Thumb Code    24  lv_label.o(.text)
    lv_label_set_offset_x                    0x0802c829   Thumb Code    24  lv_label.o(.text)
    lv_label_refr_text                       0x0802c841   Thumb Code  1436  lv_label.o(.text)
    lv_label_get_dot_tmp                     0x0802d023   Thumb Code    28  lv_label.o(.text)
    lv_label_revert_dots                     0x0802d03f   Thumb Code   116  lv_label.o(.text)
    lv_label_signal                          0x0802d161   Thumb Code   250  lv_label.o(.text)
    lv_label_design                          0x0802d2dd   Thumb Code   634  lv_label.o(.text)
    lv_area_get_width                        0x0802de7b   Thumb Code    14  lv_label.o(.text)
    lv_area_get_height                       0x0802de89   Thumb Code    14  lv_label.o(.text)
    lv_font_get_line_height                  0x0802de97   Thumb Code     8  lv_label.o(.text)
    lv_anim_set_var                          0x0802de9f   Thumb Code     4  lv_label.o(.text)
    lv_anim_set_exec_cb                      0x0802dea3   Thumb Code     4  lv_label.o(.text)
    lv_anim_set_time                         0x0802dea7   Thumb Code     4  lv_label.o(.text)
    lv_anim_set_values                       0x0802deab   Thumb Code     8  lv_label.o(.text)
    lv_anim_set_playback_time                0x0802deb3   Thumb Code     4  lv_label.o(.text)
    lv_anim_set_repeat_count                 0x0802deb7   Thumb Code     4  lv_label.o(.text)
    lv_obj_get_style_pad_top                 0x0802debb   Thumb Code    18  lv_label.o(.text)
    lv_obj_get_style_pad_bottom              0x0802decd   Thumb Code    18  lv_label.o(.text)
    lv_obj_get_style_pad_left                0x0802dedf   Thumb Code    18  lv_label.o(.text)
    lv_obj_get_style_pad_right               0x0802def1   Thumb Code    18  lv_label.o(.text)
    lv_obj_get_style_text_letter_space       0x0802df03   Thumb Code    20  lv_label.o(.text)
    lv_obj_get_style_text_line_space         0x0802df17   Thumb Code    20  lv_label.o(.text)
    lv_obj_get_style_text_font               0x0802df2b   Thumb Code    20  lv_label.o(.text)
    .text                                    0x0802df44   Section        0  lv_list.o(.text)
    lv_list_is_list_btn                      0x0802df45   Thumb Code    62  lv_list.o(.text)
    lv_list_is_list_label                    0x0802dfdf   Thumb Code    62  lv_list.o(.text)
    lv_list_btn_signal                       0x0802e137   Thumb Code   338  lv_list.o(.text)
    lv_list_is_list_img                      0x0802e539   Thumb Code    62  lv_list.o(.text)
    lv_list_get_style                        0x0802e5c7   Thumb Code    98  lv_list.o(.text)
    lv_list_signal                           0x0802e629   Thumb Code   776  lv_list.o(.text)
    lv_anim_set_var                          0x0802ee3d   Thumb Code     4  lv_list.o(.text)
    lv_anim_set_exec_cb                      0x0802ee41   Thumb Code     4  lv_list.o(.text)
    lv_anim_set_time                         0x0802ee45   Thumb Code     4  lv_list.o(.text)
    lv_anim_set_values                       0x0802ee49   Thumb Code     8  lv_list.o(.text)
    lv_obj_get_style_pad_left                0x0802ee51   Thumb Code    18  lv_list.o(.text)
    lv_obj_get_style_pad_right               0x0802ee63   Thumb Code    18  lv_list.o(.text)
    lv_cont_set_fit2                         0x0802ee75   Thumb Code    24  lv_list.o(.text)
    lv_page_set_scrollable_fit2              0x0802ee8d   Thumb Code    30  lv_list.o(.text)
    lv_page_set_scrl_layout                  0x0802eeab   Thumb Code    22  lv_list.o(.text)
    lv_btn_set_fit2                          0x0802eec1   Thumb Code    20  lv_list.o(.text)
    lv_list_get_anim_time                    0x0802eed5   Thumb Code    12  lv_list.o(.text)
    .text                                    0x0802eee4   Section        0  lv_msgbox.o(.text)
    lv_msgbox_close_ready_cb                 0x0802ef0f   Thumb Code    12  lv_msgbox.o(.text)
    lv_msgbox_default_event_cb               0x0802f061   Thumb Code    42  lv_msgbox.o(.text)
    mbox_realign                             0x0802f08b   Thumb Code   222  lv_msgbox.o(.text)
    lv_msgbox_get_style                      0x0802f169   Thumb Code   112  lv_msgbox.o(.text)
    lv_msgbox_signal                         0x0802f1d9   Thumb Code   498  lv_msgbox.o(.text)
    lv_msgbox_btnm_event_cb                  0x0802f593   Thumb Code    70  lv_msgbox.o(.text)
    lv_anim_set_var                          0x0802f86d   Thumb Code     4  lv_msgbox.o(.text)
    lv_anim_set_exec_cb                      0x0802f871   Thumb Code     4  lv_msgbox.o(.text)
    lv_anim_set_time                         0x0802f875   Thumb Code     4  lv_msgbox.o(.text)
    lv_anim_set_delay                        0x0802f879   Thumb Code     6  lv_msgbox.o(.text)
    lv_anim_set_values                       0x0802f87f   Thumb Code     8  lv_msgbox.o(.text)
    lv_anim_set_ready_cb                     0x0802f887   Thumb Code     4  lv_msgbox.o(.text)
    lv_obj_get_style_pad_top                 0x0802f88b   Thumb Code    18  lv_msgbox.o(.text)
    lv_obj_get_style_pad_bottom              0x0802f89d   Thumb Code    18  lv_msgbox.o(.text)
    .text                                    0x0802f8b0   Section        0  lv_page.o(.text)
    lv_area_copy                             0x0802f8b1   Thumb Code    34  lv_page.o(.text)
    scrlbar_refresh                          0x0802f8fd   Thumb Code  1034  lv_page.o(.text)
    get_edge_flash_area                      0x0802fdb9   Thumb Code   276  lv_page.o(.text)
    lv_page_design                           0x0802fecd   Thumb Code   450  lv_page.o(.text)
    refr_ext_draw_pad                        0x0803017b   Thumb Code    58  lv_page.o(.text)
    lv_page_get_style                        0x080301b5   Thumb Code   102  lv_page.o(.text)
    lv_page_signal                           0x0803021b   Thumb Code   976  lv_page.o(.text)
    edge_flash_anim_end                      0x080305eb   Thumb Code    74  lv_page.o(.text)
    edge_flash_anim                          0x08030635   Thumb Code    36  lv_page.o(.text)
    scrl_reposition                          0x08030747   Thumb Code   368  lv_page.o(.text)
    lv_page_scrollable_signal                0x08030969   Thumb Code  1150  lv_page.o(.text)
    scrl_def_event_cb                        0x08030de7   Thumb Code    78  lv_page.o(.text)
    lv_area_get_width                        0x0803153d   Thumb Code    14  lv_page.o(.text)
    lv_area_get_height                       0x0803154b   Thumb Code    14  lv_page.o(.text)
    lv_anim_set_var                          0x08031559   Thumb Code     4  lv_page.o(.text)
    lv_anim_set_exec_cb                      0x0803155d   Thumb Code     4  lv_page.o(.text)
    lv_anim_set_time                         0x08031561   Thumb Code     4  lv_page.o(.text)
    lv_anim_set_values                       0x08031565   Thumb Code     8  lv_page.o(.text)
    lv_obj_get_style_size                    0x0803156d   Thumb Code    18  lv_page.o(.text)
    lv_obj_get_style_pad_top                 0x0803157f   Thumb Code    18  lv_page.o(.text)
    lv_obj_get_style_pad_bottom              0x08031591   Thumb Code    18  lv_page.o(.text)
    lv_obj_get_style_pad_left                0x080315a3   Thumb Code    18  lv_page.o(.text)
    lv_obj_get_style_pad_right               0x080315b5   Thumb Code    18  lv_page.o(.text)
    lv_obj_get_style_pad_inner               0x080315c7   Thumb Code    18  lv_page.o(.text)
    lv_page_get_scrl_width                   0x080315d9   Thumb Code    18  lv_page.o(.text)
    .text                                    0x080315f4   Section        0  lv_roller.o(.text)
    lv_area_copy                             0x080315f5   Thumb Code    34  lv_roller.o(.text)
    get_label                                0x08031617   Thumb Code    28  lv_roller.o(.text)
    inf_normalize                            0x08031633   Thumb Code   194  lv_roller.o(.text)
    scroll_anim_ready_cb                     0x080316f5   Thumb Code    12  lv_roller.o(.text)
    refr_position                            0x08031701   Thumb Code   236  lv_roller.o(.text)
    refr_width                               0x0803181d   Thumb Code   266  lv_roller.o(.text)
    release_handler                          0x080319a5   Thumb Code   272  lv_roller.o(.text)
    lv_roller_scrl_signal                    0x08031ab5   Thumb Code   368  lv_roller.o(.text)
    refr_height                              0x08031c25   Thumb Code    78  lv_roller.o(.text)
    lv_roller_label_design                   0x08031e05   Thumb Code   306  lv_roller.o(.text)
    draw_bg                                  0x08031f65   Thumb Code   346  lv_roller.o(.text)
    lv_roller_design                         0x080320bf   Thumb Code   678  lv_roller.o(.text)
    lv_roller_get_style                      0x08032365   Thumb Code    76  lv_roller.o(.text)
    lv_roller_signal                         0x080323b1   Thumb Code   474  lv_roller.o(.text)
    lv_font_get_line_height                  0x0803299d   Thumb Code     8  lv_roller.o(.text)
    lv_obj_get_style_text_line_space         0x080329a5   Thumb Code    20  lv_roller.o(.text)
    lv_obj_get_style_text_font               0x080329b9   Thumb Code    20  lv_roller.o(.text)
    .text                                    0x080329cc   Section        0  lv_slider.o(.text)
    lv_area_copy                             0x080329cd   Thumb Code    34  lv_slider.o(.text)
    lv_slider_get_type                       0x080329ef   Thumb Code    30  lv_slider.o(.text)
    lv_slider_draw_knob                      0x08032a0d   Thumb Code    40  lv_slider.o(.text)
    lv_slider_position_knob                  0x08032a35   Thumb Code   156  lv_slider.o(.text)
    lv_slider_design                         0x08032ad1   Thumb Code   442  lv_slider.o(.text)
    lv_slider_get_style                      0x08032cb1   Thumb Code    84  lv_slider.o(.text)
    lv_slider_signal                         0x08032d05   Thumb Code  1662  lv_slider.o(.text)
    lv_obj_get_style_pad_top                 0x080334c9   Thumb Code    18  lv_slider.o(.text)
    lv_obj_get_style_pad_bottom              0x080334db   Thumb Code    18  lv_slider.o(.text)
    lv_obj_get_style_pad_left                0x080334ed   Thumb Code    18  lv_slider.o(.text)
    lv_obj_get_style_pad_right               0x080334ff   Thumb Code    18  lv_slider.o(.text)
    lv_slider_set_value                      0x08033511   Thumb Code    20  lv_slider.o(.text)
    .text                                    0x08033544   Section        0  lv_spinbox.o(.text)
    lv_spinbox_updatevalue                   0x08033545   Thumb Code   364  lv_spinbox.o(.text)
    lv_spinbox_get_style                     0x08033a85   Thumb Code    90  lv_spinbox.o(.text)
    lv_spinbox_signal                        0x08033adf   Thumb Code   542  lv_spinbox.o(.text)
    .text                                    0x08033f20   Section        0  lv_switch.o(.text)
    lv_switch_design                         0x08033f21   Thumb Code   348  lv_switch.o(.text)
    lv_switch_get_style                      0x08034101   Thumb Code    84  lv_switch.o(.text)
    lv_switch_signal                         0x08034155   Thumb Code   422  lv_switch.o(.text)
    lv_obj_get_style_pad_top                 0x080344d5   Thumb Code    18  lv_switch.o(.text)
    lv_obj_get_style_pad_bottom              0x080344e7   Thumb Code    18  lv_switch.o(.text)
    lv_obj_get_style_pad_left                0x080344f9   Thumb Code    18  lv_switch.o(.text)
    lv_obj_get_style_pad_right               0x0803450b   Thumb Code    18  lv_switch.o(.text)
    lv_switch_get_state                      0x0803451d   Thumb Code    22  lv_switch.o(.text)
    .text                                    0x08034544   Section        0  lv_tabview.o(.text)
    refr_align                               0x080347d9   Thumb Code   264  lv_tabview.o(.text)
    refr_indic_size                          0x080348e1   Thumb Code   190  lv_tabview.o(.text)
    refr_content_size                        0x0803499f   Thumb Code   220  lv_tabview.o(.text)
    refr_btns_size                           0x08034a7b   Thumb Code   256  lv_tabview.o(.text)
    tabview_realign                          0x08034b7b   Thumb Code    48  lv_tabview.o(.text)
    tab_btnm_event_cb                        0x08034e7d   Thumb Code   158  lv_tabview.o(.text)
    tabview_scrl_signal                      0x08034f1b   Thumb Code   374  lv_tabview.o(.text)
    lv_tabview_get_style                     0x08035091   Thumb Code   134  lv_tabview.o(.text)
    lv_tabview_signal                        0x08035117   Thumb Code   564  lv_tabview.o(.text)
    lv_area_get_width                        0x080357f3   Thumb Code    14  lv_tabview.o(.text)
    lv_area_get_height                       0x08035801   Thumb Code    14  lv_tabview.o(.text)
    lv_anim_set_var                          0x0803580f   Thumb Code     4  lv_tabview.o(.text)
    lv_anim_set_exec_cb                      0x08035813   Thumb Code     4  lv_tabview.o(.text)
    lv_anim_set_time                         0x08035817   Thumb Code     4  lv_tabview.o(.text)
    lv_anim_set_values                       0x0803581b   Thumb Code     8  lv_tabview.o(.text)
    lv_obj_get_style_pad_top                 0x08035823   Thumb Code    18  lv_tabview.o(.text)
    lv_obj_get_style_pad_bottom              0x08035835   Thumb Code    18  lv_tabview.o(.text)
    lv_obj_get_style_pad_left                0x08035847   Thumb Code    18  lv_tabview.o(.text)
    lv_obj_get_style_pad_right               0x08035859   Thumb Code    18  lv_tabview.o(.text)
    lv_obj_get_style_pad_inner               0x0803586b   Thumb Code    18  lv_tabview.o(.text)
    .text                                    0x0803587c   Section        0  lv_textarea.o(.text)
    _lv_memcpy_small                         0x0803587d   Thumb Code    24  lv_textarea.o(.text)
    lv_page_set_scrollable_fit2              0x08035895   Thumb Code    34  lv_textarea.o(.text)
    cursor_blink_anim                        0x080358b7   Thumb Code   142  lv_textarea.o(.text)
    refr_cursor_area                         0x0803596f   Thumb Code   544  lv_textarea.o(.text)
    pwd_char_hider                           0x08035e2f   Thumb Code   170  lv_textarea.o(.text)
    lv_textarea_scrollable_design            0x08035ed9   Thumb Code   456  lv_textarea.o(.text)
    lv_textarea_design                       0x080360a1   Thumb Code    62  lv_textarea.o(.text)
    update_cursor_position_on_click          0x080362e9   Thumb Code   210  lv_textarea.o(.text)
    lv_textarea_scrollable_signal            0x080363bb   Thumb Code   244  lv_textarea.o(.text)
    pwd_char_hider_anim_ready                0x080364af   Thumb Code    14  lv_textarea.o(.text)
    pwd_char_hider_anim                      0x080364bd   Thumb Code     2  lv_textarea.o(.text)
    char_is_accepted                         0x08036523   Thumb Code   102  lv_textarea.o(.text)
    insert_handler                           0x080367bd   Thumb Code    70  lv_textarea.o(.text)
    lv_textarea_get_style                    0x08036cbb   Thumb Code   100  lv_textarea.o(.text)
    lv_textarea_signal                       0x08036d1f   Thumb Code   532  lv_textarea.o(.text)
    lv_area_copy                             0x08037877   Thumb Code    18  lv_textarea.o(.text)
    lv_area_get_width                        0x08037889   Thumb Code    14  lv_textarea.o(.text)
    lv_area_get_height                       0x08037897   Thumb Code    14  lv_textarea.o(.text)
    lv_font_get_line_height                  0x080378a5   Thumb Code     8  lv_textarea.o(.text)
    lv_anim_set_var                          0x080378ad   Thumb Code     4  lv_textarea.o(.text)
    lv_anim_set_exec_cb                      0x080378b1   Thumb Code     4  lv_textarea.o(.text)
    lv_anim_set_time                         0x080378b5   Thumb Code     4  lv_textarea.o(.text)
    lv_anim_set_values                       0x080378b9   Thumb Code     8  lv_textarea.o(.text)
    lv_anim_set_path                         0x080378c1   Thumb Code    20  lv_textarea.o(.text)
    lv_anim_set_ready_cb                     0x080378d5   Thumb Code     4  lv_textarea.o(.text)
    lv_anim_set_playback_time                0x080378d9   Thumb Code     4  lv_textarea.o(.text)
    lv_anim_set_repeat_count                 0x080378dd   Thumb Code     4  lv_textarea.o(.text)
    lv_anim_path_init                        0x080378e1   Thumb Code    14  lv_textarea.o(.text)
    lv_anim_path_set_cb                      0x080378ef   Thumb Code     4  lv_textarea.o(.text)
    lv_obj_get_style_pad_top                 0x080378f3   Thumb Code    18  lv_textarea.o(.text)
    lv_obj_get_style_pad_bottom              0x08037905   Thumb Code    18  lv_textarea.o(.text)
    lv_obj_get_style_pad_left                0x08037917   Thumb Code    18  lv_textarea.o(.text)
    lv_obj_get_style_pad_right               0x08037929   Thumb Code    18  lv_textarea.o(.text)
    lv_obj_get_style_border_width            0x0803793b   Thumb Code    18  lv_textarea.o(.text)
    lv_obj_get_style_text_line_space         0x0803794d   Thumb Code    20  lv_textarea.o(.text)
    lv_obj_get_style_text_font               0x08037961   Thumb Code    20  lv_textarea.o(.text)
    lv_textarea_set_edge_flash               0x08037975   Thumb Code    16  lv_textarea.o(.text)
    lv_textarea_get_edge_flash               0x08037985   Thumb Code    12  lv_textarea.o(.text)
    .text                                    0x0803799c   Section        0  lv_port_disp.o(.text)
    disp_flush                               0x0803799d   Thumb Code    38  lv_port_disp.o(.text)
    disp_init                                0x080379c3   Thumb Code     2  lv_port_disp.o(.text)
    .text                                    0x08037a18   Section        0  lv_port_indev.o(.text)
    touchpad_read                            0x08037a19   Thumb Code    76  lv_port_indev.o(.text)
    .text                                    0x08037a94   Section        0  lv_demo_keypad_encoder.o(.text)
    dd_enc                                   0x08037a95   Thumb Code     2  lv_demo_keypad_encoder.o(.text)
    msgbox_event_cb                          0x08037a97   Thumb Code    74  lv_demo_keypad_encoder.o(.text)
    msgbox_create                            0x08037ae1   Thumb Code   174  lv_demo_keypad_encoder.o(.text)
    kb_event_cb                              0x08037b8f   Thumb Code    74  lv_demo_keypad_encoder.o(.text)
    ta_event_cb                              0x08037bd9   Thumb Code   220  lv_demo_keypad_encoder.o(.text)
    text_input_create                        0x08037cb5   Thumb Code   122  lv_demo_keypad_encoder.o(.text)
    selectors_create                         0x08037d2f   Thumb Code   712  lv_demo_keypad_encoder.o(.text)
    tv_event_cb                              0x08037ff7   Thumb Code   112  lv_demo_keypad_encoder.o(.text)
    focus_cb                                 0x08038067   Thumb Code    90  lv_demo_keypad_encoder.o(.text)
    lv_scr_act                               0x08038161   Thumb Code    14  lv_demo_keypad_encoder.o(.text)
    lv_layer_top                             0x0803816f   Thumb Code    14  lv_demo_keypad_encoder.o(.text)
    .text                                    0x080381cc   Section        2  use_no_semi_2.o(.text)
    .text                                    0x080381ce   Section      238  lludivv7m.o(.text)
    .text                                    0x080382bc   Section        0  noretval__2printf.o(.text)
    .text                                    0x080382d4   Section        0  __printf.o(.text)
    .text                                    0x0803833c   Section        0  _printf_str.o(.text)
    .text                                    0x08038390   Section        0  _printf_dec.o(.text)
    .text                                    0x08038408   Section        0  _printf_hex_int.o(.text)
    .text                                    0x08038460   Section        0  memcmp.o(.text)
    .text                                    0x080384b8   Section        0  strcpy.o(.text)
    .text                                    0x08038500   Section        0  strlen.o(.text)
    .text                                    0x0803853e   Section        0  strcat.o(.text)
    .text                                    0x08038556   Section      100  rt_memcpy_w.o(.text)
    .text                                    0x080385bc   Section      128  strcmpv7m.o(.text)
    .text                                    0x0803863c   Section        0  heapauxi.o(.text)
    .text                                    0x08038642   Section        2  use_no_semi.o(.text)
    .text                                    0x08038644   Section        0  _rserrno.o(.text)
    .text                                    0x0803865a   Section        0  _printf_intcommon.o(.text)
    .text                                    0x0803870c   Section        0  _printf_char.o(.text)
    .text                                    0x08038738   Section        0  _printf_char_file.o(.text)
    .text                                    0x0803875c   Section        8  rt_errno_addr_intlibspace.o(.text)
    .text                                    0x08038764   Section        0  _printf_char_common.o(.text)
    _printf_input_char                       0x08038765   Thumb Code    10  _printf_char_common.o(.text)
    .text                                    0x08038794   Section        0  ferror.o(.text)
    .text                                    0x0803879c   Section        8  libspace.o(.text)
    .text                                    0x080387a4   Section       74  sys_stackheap_outer.o(.text)
    .text                                    0x080387ee   Section        0  exit.o(.text)
    i.__hardfp_sqrt                          0x08038800   Section        0  sqrt.o(i.__hardfp_sqrt)
    x$fpl$dadd                               0x0803887c   Section      336  daddsub_clz.o(x$fpl$dadd)
    $v0                                      0x0803887c   Number         0  daddsub_clz.o(x$fpl$dadd)
    _dadd1                                   0x0803888d   Thumb Code     0  daddsub_clz.o(x$fpl$dadd)
    x$fpl$dcmpinf                            0x080389cc   Section       24  dcmpi.o(x$fpl$dcmpinf)
    $v0                                      0x080389cc   Number         0  dcmpi.o(x$fpl$dcmpinf)
    x$fpl$dfixu                              0x080389e4   Section       90  dfixu.o(x$fpl$dfixu)
    $v0                                      0x080389e4   Number         0  dfixu.o(x$fpl$dfixu)
    x$fpl$dflt                               0x08038a3e   Section       46  dflt_clz.o(x$fpl$dflt)
    $v0                                      0x08038a3e   Number         0  dflt_clz.o(x$fpl$dflt)
    x$fpl$dfltu                              0x08038a6c   Section       38  dflt_clz.o(x$fpl$dfltu)
    $v0                                      0x08038a6c   Number         0  dflt_clz.o(x$fpl$dfltu)
    x$fpl$dleqf                              0x08038a94   Section      120  dleqf.o(x$fpl$dleqf)
    $v0                                      0x08038a94   Number         0  dleqf.o(x$fpl$dleqf)
    x$fpl$dmul                               0x08038b0c   Section      340  dmul.o(x$fpl$dmul)
    $v0                                      0x08038b0c   Number         0  dmul.o(x$fpl$dmul)
    x$fpl$dnaninf                            0x08038c60   Section      156  dnaninf.o(x$fpl$dnaninf)
    $v0                                      0x08038c60   Number         0  dnaninf.o(x$fpl$dnaninf)
    x$fpl$dretinf                            0x08038cfc   Section       12  dretinf.o(x$fpl$dretinf)
    $v0                                      0x08038cfc   Number         0  dretinf.o(x$fpl$dretinf)
    x$fpl$drleqf                             0x08038d08   Section      108  drleqf.o(x$fpl$drleqf)
    $v0                                      0x08038d08   Number         0  drleqf.o(x$fpl$drleqf)
    x$fpl$drsb                               0x08038d74   Section       22  daddsub_clz.o(x$fpl$drsb)
    $v0                                      0x08038d74   Number         0  daddsub_clz.o(x$fpl$drsb)
    x$fpl$dsqrt                              0x08038d8c   Section      408  dsqrt_umaal.o(x$fpl$dsqrt)
    $v0                                      0x08038d8c   Number         0  dsqrt_umaal.o(x$fpl$dsqrt)
    x$fpl$dsub                               0x08038f24   Section      468  daddsub_clz.o(x$fpl$dsub)
    $v0                                      0x08038f24   Number         0  daddsub_clz.o(x$fpl$dsub)
    _dsub1                                   0x08038f35   Thumb Code     0  daddsub_clz.o(x$fpl$dsub)
    x$fpl$f2d                                0x080390f8   Section       86  f2d.o(x$fpl$f2d)
    $v0                                      0x080390f8   Number         0  f2d.o(x$fpl$f2d)
    x$fpl$fnaninf                            0x0803914e   Section      140  fnaninf.o(x$fpl$fnaninf)
    $v0                                      0x0803914e   Number         0  fnaninf.o(x$fpl$fnaninf)
    x$fpl$fpinit                             0x080391da   Section       10  fpinit.o(x$fpl$fpinit)
    $v0                                      0x080391da   Number         0  fpinit.o(x$fpl$fpinit)
    .constdata                               0x080391e4   Section     6080  lcd.o(.constdata)
    x$fpl$usenofp                            0x080391e4   Section        0  usenofp.o(x$fpl$usenofp)
    .constdata                               0x0803a9a4   Section      194  gt9147.o(.constdata)
    .constdata                               0x0803aa66   Section       10  ott2001a.o(.constdata)
    .constdata                               0x0803aa70   Section       10  ft5206.o(.constdata)
    .constdata                               0x0803aa7c   Section        4  touch.o(.constdata)
    .constdata                               0x0803aa80   Section       28  stm32f4xx_fsmc.o(.constdata)
    .constdata                               0x0803aa9c   Section        2  lv_obj.o(.constdata)
    .constdata                               0x0803aaa0   Section       10  lv_draw_img.o(.constdata)
    .constdata                               0x0803aaac   Section      290  lv_draw_label.o(.constdata)
    .constdata                               0x0803abce   Section       33  lv_draw_line.o(.constdata)
    wcorr                                    0x0803abce   Data          33  lv_draw_line.o(.constdata)
    .constdata                               0x0803abf0   Section        2  lv_draw_rect.o(.constdata)
    .constdata                               0x0803abf4   Section    13320  lv_font_montserrat_14.o(.constdata)
    gylph_bitmap                             0x0803abf4   Data        8602  lv_font_montserrat_14.o(.constdata)
    glyph_dsc                                0x0803cd90   Data        1240  lv_font_montserrat_14.o(.constdata)
    unicode_list_1                           0x0803d268   Data         118  lv_font_montserrat_14.o(.constdata)
    cmaps                                    0x0803d2e0   Data          40  lv_font_montserrat_14.o(.constdata)
    kern_left_class_mapping                  0x0803d308   Data         155  lv_font_montserrat_14.o(.constdata)
    kern_right_class_mapping                 0x0803d3a3   Data         155  lv_font_montserrat_14.o(.constdata)
    kern_class_values                        0x0803d43e   Data        2989  lv_font_montserrat_14.o(.constdata)
    kern_classes                             0x0803dfec   Data          16  lv_font_montserrat_14.o(.constdata)
    .constdata                               0x0803dffc   Section        6  lv_hal_disp.o(.constdata)
    .constdata                               0x0803e004   Section        8  lv_anim.o(.constdata)
    .constdata                               0x0803e00c   Section        2  lv_color.o(.constdata)
    .constdata                               0x0803e00e   Section       17  lv_debug.o(.constdata)
    hex                                      0x0803e00e   Data          17  lv_debug.o(.constdata)
    .constdata                               0x0803e020   Section      182  lv_math.o(.constdata)
    sin0_90_table                            0x0803e020   Data         182  lv_math.o(.constdata)
    .constdata                               0x0803e0d8   Section       70  lv_theme_material.o(.constdata)
    .constdata                               0x0803e120   Section      886  lv_keyboard.o(.constdata)
    default_kb_map_lc                        0x0803e120   Data         176  lv_keyboard.o(.constdata)
    default_kb_ctrl_lc_map                   0x0803e1d0   Data          80  lv_keyboard.o(.constdata)
    default_kb_map_uc                        0x0803e220   Data         176  lv_keyboard.o(.constdata)
    default_kb_ctrl_uc_map                   0x0803e2d0   Data          80  lv_keyboard.o(.constdata)
    default_kb_map_spec                      0x0803e320   Data         176  lv_keyboard.o(.constdata)
    default_kb_ctrl_spec_map                 0x0803e3d0   Data          80  lv_keyboard.o(.constdata)
    default_kb_map_num                       0x0803e420   Data          84  lv_keyboard.o(.constdata)
    default_kb_ctrl_num_map                  0x0803e474   Data          34  lv_keyboard.o(.constdata)
    .constdata                               0x0803e498   Section        2  lv_demo_keypad_encoder.o(.constdata)
    .constdata                               0x0803e49a   Section       40  _printf_hex_int.o(.constdata)
    uc_hextab                                0x0803e49a   Data          20  _printf_hex_int.o(.constdata)
    lc_hextab                                0x0803e4ae   Data          20  _printf_hex_int.o(.constdata)
    .conststring                             0x0803e4c4   Section      121  touch.o(.conststring)
    .conststring                             0x0803e540   Section       81  lv_mem.o(.conststring)
    .conststring                             0x0803e594   Section       45  lv_btnmatrix.o(.conststring)
    .conststring                             0x0803e5c4   Section      400  lv_keyboard.o(.conststring)
    .conststring                             0x0803e754   Section       11  lv_demo_keypad_encoder.o(.conststring)
    .data                                    0x20000000   Section       20  system_stm32f4xx.o(.data)
    .data                                    0x20000014   Section        4  lcd.o(.data)
    .data                                    0x20000018   Section        1  key.o(.data)
    key_up                                   0x20000018   Data           1  key.o(.data)
    .data                                    0x20000019   Section        1  gt9147.o(.data)
    t                                        0x20000019   Data           1  gt9147.o(.data)
    .data                                    0x2000001a   Section        1  ott2001a.o(.data)
    t                                        0x2000001a   Data           1  ott2001a.o(.data)
    .data                                    0x2000001b   Section        1  ft5206.o(.data)
    t                                        0x2000001b   Data           1  ft5206.o(.data)
    .data                                    0x2000001c   Section       54  touch.o(.data)
    .data                                    0x20000052   Section        4  delay.o(.data)
    fac_us                                   0x20000052   Data           1  delay.o(.data)
    fac_ms                                   0x20000054   Data           2  delay.o(.data)
    .data                                    0x20000058   Section        6  usart.o(.data)
    .data                                    0x2000005e   Section       16  stm32f4xx_rcc.o(.data)
    APBAHBPrescTable                         0x2000005e   Data          16  stm32f4xx_rcc.o(.data)
    .data                                    0x20000070   Section        8  lv_indev.o(.data)
    indev_act                                0x20000070   Data           4  lv_indev.o(.data)
    indev_obj_act                            0x20000074   Data           4  lv_indev.o(.data)
    .data                                    0x20000078   Section       12  lv_obj.o(.data)
    lv_initialized                           0x20000078   Data           1  lv_obj.o(.data)
    event_temp_data_head                     0x2000007c   Data           4  lv_obj.o(.data)
    event_act_data                           0x20000080   Data           4  lv_obj.o(.data)
    .data                                    0x20000084   Section        8  lv_refr.o(.data)
    px_num                                   0x20000084   Data           4  lv_refr.o(.data)
    disp_refr                                0x20000088   Data           4  lv_refr.o(.data)
    .data                                    0x2000008c   Section        8  lv_draw_label.o(.data)
    prev_opa                                 0x2000008c   Data           1  lv_draw_label.o(.data)
    prev_bpp                                 0x20000090   Data           4  lv_draw_label.o(.data)
    .data                                    0x20000094   Section        2  lv_img_cache.o(.data)
    entry_cnt                                0x20000094   Data           2  lv_img_cache.o(.data)
    .data                                    0x20000098   Section       16  lv_font_fmt_txt.o(.data)
    decompr_buf                              0x20000098   Data           4  lv_font_fmt_txt.o(.data)
    rle_rdp                                  0x2000009c   Data           4  lv_font_fmt_txt.o(.data)
    rle_in                                   0x200000a0   Data           4  lv_font_fmt_txt.o(.data)
    rle_bpp                                  0x200000a4   Data           1  lv_font_fmt_txt.o(.data)
    rle_prev_v                               0x200000a5   Data           1  lv_font_fmt_txt.o(.data)
    rle_cnt                                  0x200000a6   Data           1  lv_font_fmt_txt.o(.data)
    rle_state                                0x200000a7   Data           1  lv_font_fmt_txt.o(.data)
    .data                                    0x200000a8   Section       52  lv_font_montserrat_14.o(.data)
    font_dsc                                 0x200000a8   Data          32  lv_font_montserrat_14.o(.data)
    .data                                    0x200000dc   Section        4  lv_hal_disp.o(.data)
    disp_def                                 0x200000dc   Data           4  lv_hal_disp.o(.data)
    .data                                    0x200000e0   Section        5  lv_hal_tick.o(.data)
    sys_time                                 0x200000e0   Data           4  lv_hal_tick.o(.data)
    tick_irq_flag                            0x200000e4   Data           1  lv_hal_tick.o(.data)
    .data                                    0x200000e8   Section       12  lv_anim.o(.data)
    last_task_run                            0x200000e8   Data           4  lv_anim.o(.data)
    anim_list_changed                        0x200000ec   Data           1  lv_anim.o(.data)
    _lv_anim_task                            0x200000f0   Data           4  lv_anim.o(.data)
    .data                                    0x200000f4   Section       24  lv_gc.o(.data)
    .data                                    0x2000010c   Section       30  lv_mem.o(.data)
    work_mem                                 0x2000010c   Data           4  lv_mem.o(.data)
    zero_mem                                 0x20000110   Data           4  lv_mem.o(.data)
    mem_max_size                             0x20000114   Data           4  lv_mem.o(.data)
    mem_buf_small                            0x20000118   Data          16  lv_mem.o(.data)
    full_defrag_cnt                          0x20000128   Data           2  lv_mem.o(.data)
    .data                                    0x2000012c   Section       24  lv_task.o(.data)
    lv_task_run                              0x2000012c   Data           1  lv_task.o(.data)
    idle_last                                0x2000012d   Data           1  lv_task.o(.data)
    task_deleted                             0x2000012e   Data           1  lv_task.o(.data)
    task_list_changed                        0x2000012f   Data           1  lv_task.o(.data)
    task_created                             0x20000130   Data           1  lv_task.o(.data)
    already_running                          0x20000131   Data           1  lv_task.o(.data)
    idle_period_start                        0x20000134   Data           4  lv_task.o(.data)
    handler_start                            0x20000138   Data           4  lv_task.o(.data)
    busy_time                                0x2000013c   Data           4  lv_task.o(.data)
    time_till_next                           0x20000140   Data           4  lv_task.o(.data)
    .data                                    0x20000144   Section       32  lv_txt.o(.data)
    .data                                    0x20000164   Section        4  lv_theme.o(.data)
    act_theme                                0x20000164   Data           4  lv_theme.o(.data)
    .data                                    0x20000168   Section        5  lv_theme_material.o(.data)
    styles                                   0x20000168   Data           4  lv_theme_material.o(.data)
    inited                                   0x2000016c   Data           1  lv_theme_material.o(.data)
    .data                                    0x20000170   Section        8  lv_bar.o(.data)
    ancestor_design_f                        0x20000170   Data           4  lv_bar.o(.data)
    ancestor_signal                          0x20000174   Data           4  lv_bar.o(.data)
    .data                                    0x20000178   Section        8  lv_btn.o(.data)
    ancestor_signal                          0x20000178   Data           4  lv_btn.o(.data)
    ancestor_design                          0x2000017c   Data           4  lv_btn.o(.data)
    .data                                    0x20000180   Section       36  lv_btnmatrix.o(.data)
    lv_btnmatrix_def_map                     0x20000180   Data          28  lv_btnmatrix.o(.data)
    ancestor_design_f                        0x2000019c   Data           4  lv_btnmatrix.o(.data)
    ancestor_signal                          0x200001a0   Data           4  lv_btnmatrix.o(.data)
    .data                                    0x200001a4   Section        4  lv_checkbox.o(.data)
    ancestor_signal                          0x200001a4   Data           4  lv_checkbox.o(.data)
    .data                                    0x200001a8   Section        8  lv_cont.o(.data)
    ancestor_design                          0x200001a8   Data           4  lv_cont.o(.data)
    ancestor_signal                          0x200001ac   Data           4  lv_cont.o(.data)
    .data                                    0x200001b0   Section       20  lv_dropdown.o(.data)
    ancestor_signal                          0x200001b0   Data           4  lv_dropdown.o(.data)
    ancestor_page_signal                     0x200001b4   Data           4  lv_dropdown.o(.data)
    ancestor_page_scrl_signal                0x200001b8   Data           4  lv_dropdown.o(.data)
    ancestor_design                          0x200001bc   Data           4  lv_dropdown.o(.data)
    ancestor_page_design                     0x200001c0   Data           4  lv_dropdown.o(.data)
    .data                                    0x200001c4   Section        4  lv_img.o(.data)
    ancestor_signal                          0x200001c4   Data           4  lv_img.o(.data)
    .data                                    0x200001c8   Section       36  lv_keyboard.o(.data)
    ancestor_signal                          0x200001c8   Data           4  lv_keyboard.o(.data)
    kb_map                                   0x200001cc   Data          16  lv_keyboard.o(.data)
    kb_ctrl                                  0x200001dc   Data          16  lv_keyboard.o(.data)
    .data                                    0x200001ec   Section        4  lv_label.o(.data)
    ancestor_signal                          0x200001ec   Data           4  lv_label.o(.data)
    .data                                    0x200001f0   Section       16  lv_list.o(.data)
    img_signal                               0x200001f0   Data           4  lv_list.o(.data)
    label_signal                             0x200001f4   Data           4  lv_list.o(.data)
    ancestor_page_signal                     0x200001f8   Data           4  lv_list.o(.data)
    ancestor_btn_signal                      0x200001fc   Data           4  lv_list.o(.data)
    .data                                    0x20000200   Section        4  lv_msgbox.o(.data)
    ancestor_signal                          0x20000200   Data           4  lv_msgbox.o(.data)
    .data                                    0x20000204   Section        8  lv_page.o(.data)
    ancestor_design                          0x20000204   Data           4  lv_page.o(.data)
    ancestor_signal                          0x20000208   Data           4  lv_page.o(.data)
    .data                                    0x2000020c   Section       12  lv_roller.o(.data)
    ancestor_signal                          0x2000020c   Data           4  lv_roller.o(.data)
    ancestor_label_design                    0x20000210   Data           4  lv_roller.o(.data)
    ancestor_scrl_signal                     0x20000214   Data           4  lv_roller.o(.data)
    .data                                    0x20000218   Section        8  lv_slider.o(.data)
    ancestor_design_f                        0x20000218   Data           4  lv_slider.o(.data)
    ancestor_signal                          0x2000021c   Data           4  lv_slider.o(.data)
    .data                                    0x20000220   Section        8  lv_spinbox.o(.data)
    ancestor_signal                          0x20000220   Data           4  lv_spinbox.o(.data)
    ancestor_design                          0x20000224   Data           4  lv_spinbox.o(.data)
    .data                                    0x20000228   Section        8  lv_switch.o(.data)
    ancestor_signal                          0x20000228   Data           4  lv_switch.o(.data)
    ancestor_design                          0x2000022c   Data           4  lv_switch.o(.data)
    .data                                    0x20000230   Section       16  lv_tabview.o(.data)
    ancestor_signal                          0x20000230   Data           4  lv_tabview.o(.data)
    ancestor_scrl_signal                     0x20000234   Data           4  lv_tabview.o(.data)
    page_signal                              0x20000238   Data           4  lv_tabview.o(.data)
    tab_def                                  0x2000023c   Data           4  lv_tabview.o(.data)
    .data                                    0x20000240   Section       20  lv_textarea.o(.data)
    ancestor_design                          0x20000240   Data           4  lv_textarea.o(.data)
    scrl_design                              0x20000244   Data           4  lv_textarea.o(.data)
    ancestor_signal                          0x20000248   Data           4  lv_textarea.o(.data)
    scrl_signal                              0x2000024c   Data           4  lv_textarea.o(.data)
    ta_insert_replace                        0x20000250   Data           4  lv_textarea.o(.data)
    .data                                    0x20000254   Section        8  lv_port_indev.o(.data)
    last_x                                   0x20000258   Data           2  lv_port_indev.o(.data)
    last_y                                   0x2000025a   Data           2  lv_port_indev.o(.data)
    .data                                    0x2000025c   Section       32  lv_demo_keypad_encoder.o(.data)
    g                                        0x2000025c   Data           4  lv_demo_keypad_encoder.o(.data)
    tv                                       0x20000260   Data           4  lv_demo_keypad_encoder.o(.data)
    t1                                       0x20000264   Data           4  lv_demo_keypad_encoder.o(.data)
    t2                                       0x20000268   Data           4  lv_demo_keypad_encoder.o(.data)
    t3                                       0x2000026c   Data           4  lv_demo_keypad_encoder.o(.data)
    btns                                     0x20000270   Data          12  lv_demo_keypad_encoder.o(.data)
    .bss                                     0x2000027c   Section       14  lcd.o(.bss)
    .bss                                     0x2000028a   Section      200  usart.o(.bss)
    .bss                                     0x20000352   Section      256  lv_draw_label.o(.bss)
    opa_table                                0x20000352   Data         256  lv_draw_label.o(.bss)
    .bss                                     0x20000454   Section      364  lv_gc.o(.bss)
    .bss                                     0x200005c0   Section    22560  lv_mem.o(.bss)
    mem_buf1_32                              0x200005c0   Data          16  lv_mem.o(.bss)
    mem_buf2_32                              0x200005d0   Data          16  lv_mem.o(.bss)
    work_mem_int                             0x200005e0   Data       22528  lv_mem.o(.bss)
    .bss                                     0x20005de0   Section       40  lv_theme_material.o(.bss)
    theme                                    0x20005de0   Data          40  lv_theme_material.o(.bss)
    .bss                                     0x20005e08   Section       36  lv_port_disp.o(.bss)
    disp_buf                                 0x20005e08   Data          36  lv_port_disp.o(.bss)
    .bss                                     0x20005e2c   Section       44  lv_demo_keypad_encoder.o(.bss)
    .bss                                     0x20005e58   Section       96  libspace.o(.bss)
    HEAP                                     0x20005eb8   Section      512  startup_stm32f40_41xxx.o(HEAP)
    Heap_Mem                                 0x20005eb8   Data         512  startup_stm32f40_41xxx.o(HEAP)
    STACK                                    0x200060b8   Section     2048  startup_stm32f40_41xxx.o(STACK)
    Stack_Mem                                0x200060b8   Data        2048  startup_stm32f40_41xxx.o(STACK)
    __initial_sp                             0x200068b8   Data           0  startup_stm32f40_41xxx.o(STACK)
    .ARM.__AT_0x68000000                     0x68000000   Section    768000  lv_port_disp.o(.ARM.__AT_0x68000000)
    color_buf                                0x68000000   Data       768000  lv_port_disp.o(.ARM.__AT_0x68000000)

    Global Symbols

    Symbol Name                              Value     Ov Type        Size  Object(Section)

    BuildAttributes$$THM_ISAv4$E$P$D$K$B$S$7EM$VFPi3$EXTD16$VFPS$VFMA$PE$A:L22UL41UL21$X:L11$S22US41US21$IEEE1$IW$USESV6$~STKCKD$USESV7$~SHL$OTIME$ROPI$IEEEJ$EBA8$UX$STANDARDLIB$REQ8$PRES8$EABIv2 0x00000000   Number         0  anon$$obj.o ABSOLUTE
    __ARM_use_no_argv                        0x00000000   Number         0  main.o ABSOLUTE
    __ARM_exceptions_init                     - Undefined Weak Reference
    __alloca_initialize                       - Undefined Weak Reference
    __arm_preinit_                            - Undefined Weak Reference
    __cpp_initialize__aeabi_                  - Undefined Weak Reference
    __cxa_finalize                            - Undefined Weak Reference
    __rt_locale                               - Undefined Weak Reference
    __sigvec_lookup                           - Undefined Weak Reference
    _atexit_init                              - Undefined Weak Reference
    _call_atexit_fns                          - Undefined Weak Reference
    _clock_init                               - Undefined Weak Reference
    _fp_trap_init                             - Undefined Weak Reference
    _fp_trap_shutdown                         - Undefined Weak Reference
    _get_lc_collate                           - Undefined Weak Reference
    _get_lc_ctype                             - Undefined Weak Reference
    _get_lc_monetary                          - Undefined Weak Reference
    _get_lc_numeric                           - Undefined Weak Reference
    _get_lc_time                              - Undefined Weak Reference
    _getenv_init                              - Undefined Weak Reference
    _handle_redirection                       - Undefined Weak Reference
    _init_alloc                               - Undefined Weak Reference
    _init_user_alloc                          - Undefined Weak Reference
    _initio                                   - Undefined Weak Reference
    _mutex_acquire                            - Undefined Weak Reference
    _mutex_release                            - Undefined Weak Reference
    _printf_mbtowc                            - Undefined Weak Reference
    _printf_post_padding                      - Undefined Weak Reference
    _printf_pre_padding                       - Undefined Weak Reference
    _printf_truncate_signed                   - Undefined Weak Reference
    _printf_truncate_unsigned                 - Undefined Weak Reference
    _rand_init                                - Undefined Weak Reference
    _signal_finish                            - Undefined Weak Reference
    _signal_init                              - Undefined Weak Reference
    _terminate_alloc                          - Undefined Weak Reference
    _terminate_user_alloc                     - Undefined Weak Reference
    _terminateio                              - Undefined Weak Reference
    __Vectors_Size                           0x00000188   Number         0  startup_stm32f40_41xxx.o ABSOLUTE
    __Vectors                                0x08000000   Data           4  startup_stm32f40_41xxx.o(RESET)
    __Vectors_End                            0x08000188   Data           0  startup_stm32f40_41xxx.o(RESET)
    __main                                   0x08000189   Thumb Code     8  __main.o(!!!main)
    __scatterload                            0x08000191   Thumb Code     0  __scatter.o(!!!scatter)
    __scatterload_rt2                        0x08000191   Thumb Code    44  __scatter.o(!!!scatter)
    __scatterload_rt2_thumb_only             0x08000191   Thumb Code     0  __scatter.o(!!!scatter)
    __scatterload_null                       0x0800019f   Thumb Code     0  __scatter.o(!!!scatter)
    __decompress                             0x080001c5   Thumb Code    90  __dczerorl2.o(!!dczerorl2)
    __decompress1                            0x080001c5   Thumb Code     0  __dczerorl2.o(!!dczerorl2)
    __scatterload_zeroinit                   0x08000221   Thumb Code    28  __scatter_zi.o(!!handler_zi)
    _printf_d                                0x0800023d   Thumb Code     0  _printf_d.o(.ARM.Collect$$_printf_percent$$00000009)
    _printf_percent                          0x0800023d   Thumb Code     0  _printf_percent.o(.ARM.Collect$$_printf_percent$$00000000)
    _printf_x                                0x08000243   Thumb Code     0  _printf_x.o(.ARM.Collect$$_printf_percent$$0000000C)
    _printf_s                                0x08000249   Thumb Code     0  _printf_s.o(.ARM.Collect$$_printf_percent$$00000014)
    _printf_percent_end                      0x0800024f   Thumb Code     0  _printf_percent_end.o(.ARM.Collect$$_printf_percent$$00000017)
    __rt_lib_init                            0x08000253   Thumb Code     0  libinit.o(.ARM.Collect$$libinit$$00000000)
    __rt_lib_init_fp_1                       0x08000255   Thumb Code     0  libinit2.o(.ARM.Collect$$libinit$$00000001)
    __rt_lib_init_alloca_1                   0x08000259   Thumb Code     0  libinit2.o(.ARM.Collect$$libinit$$0000002E)
    __rt_lib_init_argv_1                     0x08000259   Thumb Code     0  libinit2.o(.ARM.Collect$$libinit$$0000002C)
    __rt_lib_init_atexit_1                   0x08000259   Thumb Code     0  libinit2.o(.ARM.Collect$$libinit$$0000001B)
    __rt_lib_init_clock_1                    0x08000259   Thumb Code     0  libinit2.o(.ARM.Collect$$libinit$$00000021)
    __rt_lib_init_cpp_1                      0x08000259   Thumb Code     0  libinit2.o(.ARM.Collect$$libinit$$00000032)
    __rt_lib_init_exceptions_1               0x08000259   Thumb Code     0  libinit2.o(.ARM.Collect$$libinit$$00000030)
    __rt_lib_init_fp_trap_1                  0x08000259   Thumb Code     0  libinit2.o(.ARM.Collect$$libinit$$0000001F)
    __rt_lib_init_getenv_1                   0x08000259   Thumb Code     0  libinit2.o(.ARM.Collect$$libinit$$00000023)
    __rt_lib_init_heap_1                     0x08000259   Thumb Code     0  libinit2.o(.ARM.Collect$$libinit$$0000000A)
    __rt_lib_init_lc_collate_1               0x08000259   Thumb Code     0  libinit2.o(.ARM.Collect$$libinit$$00000011)
    __rt_lib_init_lc_ctype_1                 0x08000259   Thumb Code     0  libinit2.o(.ARM.Collect$$libinit$$00000013)
    __rt_lib_init_lc_monetary_1              0x08000259   Thumb Code     0  libinit2.o(.ARM.Collect$$libinit$$00000015)
    __rt_lib_init_lc_numeric_1               0x08000259   Thumb Code     0  libinit2.o(.ARM.Collect$$libinit$$00000017)
    __rt_lib_init_lc_time_1                  0x08000259   Thumb Code     0  libinit2.o(.ARM.Collect$$libinit$$00000019)
    __rt_lib_init_preinit_1                  0x08000259   Thumb Code     0  libinit2.o(.ARM.Collect$$libinit$$00000004)
    __rt_lib_init_rand_1                     0x08000259   Thumb Code     0  libinit2.o(.ARM.Collect$$libinit$$0000000E)
    __rt_lib_init_return                     0x08000259   Thumb Code     0  libinit2.o(.ARM.Collect$$libinit$$00000033)
    __rt_lib_init_signal_1                   0x08000259   Thumb Code     0  libinit2.o(.ARM.Collect$$libinit$$0000001D)
    __rt_lib_init_stdio_1                    0x08000259   Thumb Code     0  libinit2.o(.ARM.Collect$$libinit$$00000025)
    __rt_lib_init_user_alloc_1               0x08000259   Thumb Code     0  libinit2.o(.ARM.Collect$$libinit$$0000000C)
    __rt_lib_shutdown                        0x0800025b   Thumb Code     0  libshutdown.o(.ARM.Collect$$libshutdown$$00000000)
    __rt_lib_shutdown_cpp_1                  0x0800025d   Thumb Code     0  libshutdown2.o(.ARM.Collect$$libshutdown$$00000002)
    __rt_lib_shutdown_fp_trap_1              0x0800025d   Thumb Code     0  libshutdown2.o(.ARM.Collect$$libshutdown$$00000007)
    __rt_lib_shutdown_heap_1                 0x0800025d   Thumb Code     0  libshutdown2.o(.ARM.Collect$$libshutdown$$0000000F)
    __rt_lib_shutdown_return                 0x0800025d   Thumb Code     0  libshutdown2.o(.ARM.Collect$$libshutdown$$00000010)
    __rt_lib_shutdown_signal_1               0x0800025d   Thumb Code     0  libshutdown2.o(.ARM.Collect$$libshutdown$$0000000A)
    __rt_lib_shutdown_stdio_1                0x0800025d   Thumb Code     0  libshutdown2.o(.ARM.Collect$$libshutdown$$00000004)
    __rt_lib_shutdown_user_alloc_1           0x0800025d   Thumb Code     0  libshutdown2.o(.ARM.Collect$$libshutdown$$0000000C)
    __rt_entry                               0x0800025f   Thumb Code     0  __rtentry.o(.ARM.Collect$$rtentry$$00000000)
    __rt_entry_presh_1                       0x0800025f   Thumb Code     0  __rtentry2.o(.ARM.Collect$$rtentry$$00000002)
    __rt_entry_sh                            0x0800025f   Thumb Code     0  __rtentry4.o(.ARM.Collect$$rtentry$$00000004)
    __rt_entry_li                            0x08000265   Thumb Code     0  __rtentry2.o(.ARM.Collect$$rtentry$$0000000A)
    __rt_entry_postsh_1                      0x08000265   Thumb Code     0  __rtentry2.o(.ARM.Collect$$rtentry$$00000009)
    __rt_entry_main                          0x08000269   Thumb Code     0  __rtentry2.o(.ARM.Collect$$rtentry$$0000000D)
    __rt_entry_postli_1                      0x08000269   Thumb Code     0  __rtentry2.o(.ARM.Collect$$rtentry$$0000000C)
    __rt_exit                                0x08000271   Thumb Code     0  rtexit.o(.ARM.Collect$$rtexit$$00000000)
    __rt_exit_ls                             0x08000273   Thumb Code     0  rtexit2.o(.ARM.Collect$$rtexit$$00000003)
    __rt_exit_prels_1                        0x08000273   Thumb Code     0  rtexit2.o(.ARM.Collect$$rtexit$$00000002)
    __rt_exit_exit                           0x08000277   Thumb Code     0  rtexit2.o(.ARM.Collect$$rtexit$$00000004)
    main                                     0x0800027d   Thumb Code    86  main.o(.text)
    NMI_Handler                              0x080002d9   Thumb Code     2  stm32f4xx_it.o(.text)
    HardFault_Handler                        0x080002db   Thumb Code     4  stm32f4xx_it.o(.text)
    MemManage_Handler                        0x080002df   Thumb Code     4  stm32f4xx_it.o(.text)
    BusFault_Handler                         0x080002e3   Thumb Code     4  stm32f4xx_it.o(.text)
    UsageFault_Handler                       0x080002e7   Thumb Code     4  stm32f4xx_it.o(.text)
    SVC_Handler                              0x080002eb   Thumb Code     2  stm32f4xx_it.o(.text)
    DebugMon_Handler                         0x080002ed   Thumb Code     2  stm32f4xx_it.o(.text)
    PendSV_Handler                           0x080002ef   Thumb Code     2  stm32f4xx_it.o(.text)
    SysTick_Handler                          0x080002f1   Thumb Code     2  stm32f4xx_it.o(.text)
    SystemInit                               0x080003d1   Thumb Code    88  system_stm32f4xx.o(.text)
    SystemCoreClockUpdate                    0x08000429   Thumb Code   174  system_stm32f4xx.o(.text)
    LED_Init                                 0x08000505   Thumb Code    60  led.o(.text)
    LCD_WR_REG                               0x08000545   Thumb Code    18  lcd.o(.text)
    LCD_WR_DATA                              0x08000557   Thumb Code    20  lcd.o(.text)
    LCD_RD_DATA                              0x0800056b   Thumb Code    16  lcd.o(.text)
    LCD_WriteReg                             0x0800057b   Thumb Code    14  lcd.o(.text)
    LCD_ReadReg                              0x08000589   Thumb Code    22  lcd.o(.text)
    LCD_WriteRAM_Prepare                     0x0800059f   Thumb Code    10  lcd.o(.text)
    LCD_WriteRAM                             0x080005a9   Thumb Code     8  lcd.o(.text)
    LCD_BGR2RGB                              0x080005b1   Thumb Code    26  lcd.o(.text)
    opt_delay                                0x080005cb   Thumb Code    14  lcd.o(.text)
    LCD_SetCursor                            0x080005d9   Thumb Code   418  lcd.o(.text)
    LCD_ReadPoint                            0x0800077b   Thumb Code   360  lcd.o(.text)
    LCD_DisplayOn                            0x080008e3   Thumb Code   102  lcd.o(.text)
    LCD_DisplayOff                           0x08000949   Thumb Code    90  lcd.o(.text)
    LCD_Scan_Dir                             0x080009a3   Thumb Code   744  lcd.o(.text)
    LCD_DrawPoint                            0x08000c8b   Thumb Code    28  lcd.o(.text)
    LCD_Fast_DrawPoint                       0x08000ca7   Thumb Code   388  lcd.o(.text)
    LCD_SSD_BackLightSet                     0x08000e2b   Thumb Code    88  lcd.o(.text)
    LCD_Display_Dir                          0x08000e83   Thumb Code   444  lcd.o(.text)
    LCD_Set_Window                           0x0800103f   Thumb Code   546  lcd.o(.text)
    LCD_Clear                                0x08001261   Thumb Code   100  lcd.o(.text)
    LCD_Init                                 0x080012c5   Thumb Code 14696  lcd.o(.text)
    LCD_Fill                                 0x08004c2d   Thumb Code   180  lcd.o(.text)
    LCD_Color_Fill                           0x08004ce1   Thumb Code   100  lcd.o(.text)
    LCD_DrawLine                             0x08004d45   Thumb Code   176  lcd.o(.text)
    LCD_DrawRectangle                        0x08004df5   Thumb Code    60  lcd.o(.text)
    LCD_Draw_Circle                          0x08004e31   Thumb Code   152  lcd.o(.text)
    LCD_ShowChar                             0x08004ec9   Thumb Code   272  lcd.o(.text)
    LCD_Pow                                  0x08004fd9   Thumb Code    22  lcd.o(.text)
    LCD_ShowNum                              0x08004fef   Thumb Code   148  lcd.o(.text)
    LCD_ShowxNum                             0x08005083   Thumb Code   220  lcd.o(.text)
    LCD_ShowString                           0x0800515f   Thumb Code   102  lcd.o(.text)
    KEY_Init                                 0x080051c5   Thumb Code    60  key.o(.text)
    KEY_Scan                                 0x08005201   Thumb Code   188  key.o(.text)
    IIC_Init                                 0x080052c9   Thumb Code    62  myiic.o(.text)
    IIC_Start                                0x08005307   Thumb Code    68  myiic.o(.text)
    IIC_Stop                                 0x0800534b   Thumb Code    62  myiic.o(.text)
    IIC_Wait_Ack                             0x08005389   Thumb Code    82  myiic.o(.text)
    IIC_Ack                                  0x080053db   Thumb Code    66  myiic.o(.text)
    IIC_NAck                                 0x0800541d   Thumb Code    66  myiic.o(.text)
    IIC_Send_Byte                            0x0800545f   Thumb Code    90  myiic.o(.text)
    IIC_Read_Byte                            0x080054b9   Thumb Code    94  myiic.o(.text)
    AT24CXX_Init                             0x08005525   Thumb Code     8  24cxx.o(.text)
    AT24CXX_ReadOneByte                      0x0800552d   Thumb Code    88  24cxx.o(.text)
    AT24CXX_WriteOneByte                     0x08005585   Thumb Code    80  24cxx.o(.text)
    AT24CXX_WriteLenByte                     0x080055d5   Thumb Code    42  24cxx.o(.text)
    AT24CXX_ReadLenByte                      0x080055ff   Thumb Code    44  24cxx.o(.text)
    AT24CXX_Check                            0x0800562b   Thumb Code    46  24cxx.o(.text)
    AT24CXX_Read                             0x08005659   Thumb Code    34  24cxx.o(.text)
    AT24CXX_Write                            0x0800567b   Thumb Code    36  24cxx.o(.text)
    CT_Delay                                 0x080056a1   Thumb Code    10  ctiic.o(.text)
    CT_IIC_Init                              0x080056ab   Thumb Code    60  ctiic.o(.text)
    CT_IIC_Start                             0x080056e7   Thumb Code    62  ctiic.o(.text)
    CT_IIC_Stop                              0x08005725   Thumb Code    56  ctiic.o(.text)
    CT_IIC_Wait_Ack                          0x0800575d   Thumb Code    78  ctiic.o(.text)
    CT_IIC_Ack                               0x080057ab   Thumb Code    66  ctiic.o(.text)
    CT_IIC_NAck                              0x080057ed   Thumb Code    66  ctiic.o(.text)
    CT_IIC_Send_Byte                         0x0800582f   Thumb Code    82  ctiic.o(.text)
    CT_IIC_Read_Byte                         0x08005881   Thumb Code    92  ctiic.o(.text)
    GT9147_WR_Reg                            0x080058f5   Thumb Code    92  gt9147.o(.text)
    GT9147_Send_Cfg                          0x08005951   Thumb Code    86  gt9147.o(.text)
    GT9147_RD_Reg                            0x080059a7   Thumb Code    98  gt9147.o(.text)
    GT9147_Init                              0x08005a09   Thumb Code   248  gt9147.o(.text)
    GT9147_Scan                              0x08005b01   Thumb Code   470  gt9147.o(.text)
    OTT2001A_WR_Reg                          0x08005d25   Thumb Code    92  ott2001a.o(.text)
    OTT2001A_RD_Reg                          0x08005d81   Thumb Code    98  ott2001a.o(.text)
    OTT2001A_SensorControl                   0x08005de3   Thumb Code    28  ott2001a.o(.text)
    OTT2001A_Init                            0x08005dff   Thumb Code   142  ott2001a.o(.text)
    OTT2001A_Scan                            0x08005e8d   Thumb Code   478  ott2001a.o(.text)
    FT5206_WR_Reg                            0x080060ad   Thumb Code    82  ft5206.o(.text)
    FT5206_RD_Reg                            0x080060ff   Thumb Code    88  ft5206.o(.text)
    FT5206_Init                              0x08006157   Thumb Code   202  ft5206.o(.text)
    FT5206_Scan                              0x08006221   Thumb Code   400  ft5206.o(.text)
    TP_Write_Byte                            0x080063d9   Thumb Code    64  touch.o(.text)
    TP_Read_AD                               0x08006419   Thumb Code   132  touch.o(.text)
    TP_Read_XOY                              0x0800649d   Thumb Code   120  touch.o(.text)
    TP_Read_XY                               0x08006515   Thumb Code    38  touch.o(.text)
    TP_Read_XY2                              0x0800653b   Thumb Code   192  touch.o(.text)
    TP_Drow_Touch_Point                      0x080065fb   Thumb Code   108  touch.o(.text)
    TP_Draw_Big_Point                        0x08006667   Thumb Code    54  touch.o(.text)
    TP_Scan                                  0x0800669d   Thumb Code   244  touch.o(.text)
    TP_Save_Adjdata                          0x08006791   Thumb Code   166  touch.o(.text)
    TP_Get_Adjdata                           0x08006837   Thumb Code   160  touch.o(.text)
    TP_Adj_Info_Show                         0x080068d7   Thumb Code   374  touch.o(.text)
    TP_Adjust                                0x08006a4d   Thumb Code  2290  touch.o(.text)
    TP_Init                                  0x0800733f   Thumb Code   290  touch.o(.text)
    TIM3_Int_Init                            0x080074b9   Thumb Code    88  timer.o(.text)
    TIM3_IRQHandler                          0x08007511   Thumb Code    32  timer.o(.text)
    FSMC_SRAM_Init                           0x08007535   Thumb Code   694  sram.o(.text)
    FSMC_SRAM_WriteBuffer                    0x080077eb   Thumb Code    24  sram.o(.text)
    FSMC_SRAM_ReadBuffer                     0x08007803   Thumb Code    22  sram.o(.text)
    delay_init                               0x0800782d   Thumb Code    52  delay.o(.text)
    delay_us                                 0x08007861   Thumb Code    72  delay.o(.text)
    delay_xms                                0x080078a9   Thumb Code    72  delay.o(.text)
    delay_ms                                 0x080078f1   Thumb Code    56  delay.o(.text)
    _sys_exit                                0x08007931   Thumb Code     4  usart.o(.text)
    fputc                                    0x08007935   Thumb Code    22  usart.o(.text)
    uart_init                                0x0800794b   Thumb Code   164  usart.o(.text)
    USART1_IRQHandler                        0x080079ef   Thumb Code   122  usart.o(.text)
    Reset_Handler                            0x08007a79   Thumb Code     8  startup_stm32f40_41xxx.o(.text)
    ADC_IRQHandler                           0x08007a93   Thumb Code     0  startup_stm32f40_41xxx.o(.text)
    CAN1_RX0_IRQHandler                      0x08007a93   Thumb Code     0  startup_stm32f40_41xxx.o(.text)
    CAN1_RX1_IRQHandler                      0x08007a93   Thumb Code     0  startup_stm32f40_41xxx.o(.text)
    CAN1_SCE_IRQHandler                      0x08007a93   Thumb Code     0  startup_stm32f40_41xxx.o(.text)
    CAN1_TX_IRQHandler                       0x08007a93   Thumb Code     0  startup_stm32f40_41xxx.o(.text)
    CAN2_RX0_IRQHandler                      0x08007a93   Thumb Code     0  startup_stm32f40_41xxx.o(.text)
    CAN2_RX1_IRQHandler                      0x08007a93   Thumb Code     0  startup_stm32f40_41xxx.o(.text)
    CAN2_SCE_IRQHandler                      0x08007a93   Thumb Code     0  startup_stm32f40_41xxx.o(.text)
    CAN2_TX_IRQHandler                       0x08007a93   Thumb Code     0  startup_stm32f40_41xxx.o(.text)
    CRYP_IRQHandler                          0x08007a93   Thumb Code     0  startup_stm32f40_41xxx.o(.text)
    DCMI_IRQHandler                          0x08007a93   Thumb Code     0  startup_stm32f40_41xxx.o(.text)
    DMA1_Stream0_IRQHandler                  0x08007a93   Thumb Code     0  startup_stm32f40_41xxx.o(.text)
    DMA1_Stream1_IRQHandler                  0x08007a93   Thumb Code     0  startup_stm32f40_41xxx.o(.text)
    DMA1_Stream2_IRQHandler                  0x08007a93   Thumb Code     0  startup_stm32f40_41xxx.o(.text)
    DMA1_Stream3_IRQHandler                  0x08007a93   Thumb Code     0  startup_stm32f40_41xxx.o(.text)
    DMA1_Stream4_IRQHandler                  0x08007a93   Thumb Code     0  startup_stm32f40_41xxx.o(.text)
    DMA1_Stream5_IRQHandler                  0x08007a93   Thumb Code     0  startup_stm32f40_41xxx.o(.text)
    DMA1_Stream6_IRQHandler                  0x08007a93   Thumb Code     0  startup_stm32f40_41xxx.o(.text)
    DMA1_Stream7_IRQHandler                  0x08007a93   Thumb Code     0  startup_stm32f40_41xxx.o(.text)
    DMA2_Stream0_IRQHandler                  0x08007a93   Thumb Code     0  startup_stm32f40_41xxx.o(.text)
    DMA2_Stream1_IRQHandler                  0x08007a93   Thumb Code     0  startup_stm32f40_41xxx.o(.text)
    DMA2_Stream2_IRQHandler                  0x08007a93   Thumb Code     0  startup_stm32f40_41xxx.o(.text)
    DMA2_Stream3_IRQHandler                  0x08007a93   Thumb Code     0  startup_stm32f40_41xxx.o(.text)
    DMA2_Stream4_IRQHandler                  0x08007a93   Thumb Code     0  startup_stm32f40_41xxx.o(.text)
    DMA2_Stream5_IRQHandler                  0x08007a93   Thumb Code     0  startup_stm32f40_41xxx.o(.text)
    DMA2_Stream6_IRQHandler                  0x08007a93   Thumb Code     0  startup_stm32f40_41xxx.o(.text)
    DMA2_Stream7_IRQHandler                  0x08007a93   Thumb Code     0  startup_stm32f40_41xxx.o(.text)
    ETH_IRQHandler                           0x08007a93   Thumb Code     0  startup_stm32f40_41xxx.o(.text)
    ETH_WKUP_IRQHandler                      0x08007a93   Thumb Code     0  startup_stm32f40_41xxx.o(.text)
    EXTI0_IRQHandler                         0x08007a93   Thumb Code     0  startup_stm32f40_41xxx.o(.text)
    EXTI15_10_IRQHandler                     0x08007a93   Thumb Code     0  startup_stm32f40_41xxx.o(.text)
    EXTI1_IRQHandler                         0x08007a93   Thumb Code     0  startup_stm32f40_41xxx.o(.text)
    EXTI2_IRQHandler                         0x08007a93   Thumb Code     0  startup_stm32f40_41xxx.o(.text)
    EXTI3_IRQHandler                         0x08007a93   Thumb Code     0  startup_stm32f40_41xxx.o(.text)
    EXTI4_IRQHandler                         0x08007a93   Thumb Code     0  startup_stm32f40_41xxx.o(.text)
    EXTI9_5_IRQHandler                       0x08007a93   Thumb Code     0  startup_stm32f40_41xxx.o(.text)
    FLASH_IRQHandler                         0x08007a93   Thumb Code     0  startup_stm32f40_41xxx.o(.text)
    FPU_IRQHandler                           0x08007a93   Thumb Code     0  startup_stm32f40_41xxx.o(.text)
    FSMC_IRQHandler                          0x08007a93   Thumb Code     0  startup_stm32f40_41xxx.o(.text)
    HASH_RNG_IRQHandler                      0x08007a93   Thumb Code     0  startup_stm32f40_41xxx.o(.text)
    I2C1_ER_IRQHandler                       0x08007a93   Thumb Code     0  startup_stm32f40_41xxx.o(.text)
    I2C1_EV_IRQHandler                       0x08007a93   Thumb Code     0  startup_stm32f40_41xxx.o(.text)
    I2C2_ER_IRQHandler                       0x08007a93   Thumb Code     0  startup_stm32f40_41xxx.o(.text)
    I2C2_EV_IRQHandler                       0x08007a93   Thumb Code     0  startup_stm32f40_41xxx.o(.text)
    I2C3_ER_IRQHandler                       0x08007a93   Thumb Code     0  startup_stm32f40_41xxx.o(.text)
    I2C3_EV_IRQHandler                       0x08007a93   Thumb Code     0  startup_stm32f40_41xxx.o(.text)
    OTG_FS_IRQHandler                        0x08007a93   Thumb Code     0  startup_stm32f40_41xxx.o(.text)
    OTG_FS_WKUP_IRQHandler                   0x08007a93   Thumb Code     0  startup_stm32f40_41xxx.o(.text)
    OTG_HS_EP1_IN_IRQHandler                 0x08007a93   Thumb Code     0  startup_stm32f40_41xxx.o(.text)
    OTG_HS_EP1_OUT_IRQHandler                0x08007a93   Thumb Code     0  startup_stm32f40_41xxx.o(.text)
    OTG_HS_IRQHandler                        0x08007a93   Thumb Code     0  startup_stm32f40_41xxx.o(.text)
    OTG_HS_WKUP_IRQHandler                   0x08007a93   Thumb Code     0  startup_stm32f40_41xxx.o(.text)
    PVD_IRQHandler                           0x08007a93   Thumb Code     0  startup_stm32f40_41xxx.o(.text)
    RCC_IRQHandler                           0x08007a93   Thumb Code     0  startup_stm32f40_41xxx.o(.text)
    RTC_Alarm_IRQHandler                     0x08007a93   Thumb Code     0  startup_stm32f40_41xxx.o(.text)
    RTC_WKUP_IRQHandler                      0x08007a93   Thumb Code     0  startup_stm32f40_41xxx.o(.text)
    SDIO_IRQHandler                          0x08007a93   Thumb Code     0  startup_stm32f40_41xxx.o(.text)
    SPI1_IRQHandler                          0x08007a93   Thumb Code     0  startup_stm32f40_41xxx.o(.text)
    SPI2_IRQHandler                          0x08007a93   Thumb Code     0  startup_stm32f40_41xxx.o(.text)
    SPI3_IRQHandler                          0x08007a93   Thumb Code     0  startup_stm32f40_41xxx.o(.text)
    TAMP_STAMP_IRQHandler                    0x08007a93   Thumb Code     0  startup_stm32f40_41xxx.o(.text)
    TIM1_BRK_TIM9_IRQHandler                 0x08007a93   Thumb Code     0  startup_stm32f40_41xxx.o(.text)
    TIM1_CC_IRQHandler                       0x08007a93   Thumb Code     0  startup_stm32f40_41xxx.o(.text)
    TIM1_TRG_COM_TIM11_IRQHandler            0x08007a93   Thumb Code     0  startup_stm32f40_41xxx.o(.text)
    TIM1_UP_TIM10_IRQHandler                 0x08007a93   Thumb Code     0  startup_stm32f40_41xxx.o(.text)
    TIM2_IRQHandler                          0x08007a93   Thumb Code     0  startup_stm32f40_41xxx.o(.text)
    TIM4_IRQHandler                          0x08007a93   Thumb Code     0  startup_stm32f40_41xxx.o(.text)
    TIM5_IRQHandler                          0x08007a93   Thumb Code     0  startup_stm32f40_41xxx.o(.text)
    TIM6_DAC_IRQHandler                      0x08007a93   Thumb Code     0  startup_stm32f40_41xxx.o(.text)
    TIM7_IRQHandler                          0x08007a93   Thumb Code     0  startup_stm32f40_41xxx.o(.text)
    TIM8_BRK_TIM12_IRQHandler                0x08007a93   Thumb Code     0  startup_stm32f40_41xxx.o(.text)
    TIM8_CC_IRQHandler                       0x08007a93   Thumb Code     0  startup_stm32f40_41xxx.o(.text)
    TIM8_TRG_COM_TIM14_IRQHandler            0x08007a93   Thumb Code     0  startup_stm32f40_41xxx.o(.text)
    TIM8_UP_TIM13_IRQHandler                 0x08007a93   Thumb Code     0  startup_stm32f40_41xxx.o(.text)
    UART4_IRQHandler                         0x08007a93   Thumb Code     0  startup_stm32f40_41xxx.o(.text)
    UART5_IRQHandler                         0x08007a93   Thumb Code     0  startup_stm32f40_41xxx.o(.text)
    USART2_IRQHandler                        0x08007a93   Thumb Code     0  startup_stm32f40_41xxx.o(.text)
    USART3_IRQHandler                        0x08007a93   Thumb Code     0  startup_stm32f40_41xxx.o(.text)
    USART6_IRQHandler                        0x08007a93   Thumb Code     0  startup_stm32f40_41xxx.o(.text)
    WWDG_IRQHandler                          0x08007a93   Thumb Code     0  startup_stm32f40_41xxx.o(.text)
    __user_initial_stackheap                 0x08007a95   Thumb Code     0  startup_stm32f40_41xxx.o(.text)
    NVIC_PriorityGroupConfig                 0x08007ab9   Thumb Code    10  misc.o(.text)
    NVIC_Init                                0x08007ac3   Thumb Code   106  misc.o(.text)
    NVIC_SetVectorTable                      0x08007b2d   Thumb Code    14  misc.o(.text)
    NVIC_SystemLPConfig                      0x08007b3b   Thumb Code    34  misc.o(.text)
    SysTick_CLKSourceConfig                  0x08007b5d   Thumb Code    40  misc.o(.text)
    GPIO_DeInit                              0x08007b99   Thumb Code   268  stm32f4xx_gpio.o(.text)
    GPIO_Init                                0x08007ca5   Thumb Code   144  stm32f4xx_gpio.o(.text)
    GPIO_StructInit                          0x08007d35   Thumb Code    18  stm32f4xx_gpio.o(.text)
    GPIO_PinLockConfig                       0x08007d47   Thumb Code    34  stm32f4xx_gpio.o(.text)
    GPIO_ReadInputDataBit                    0x08007d69   Thumb Code    18  stm32f4xx_gpio.o(.text)
    GPIO_ReadInputData                       0x08007d7b   Thumb Code     8  stm32f4xx_gpio.o(.text)
    GPIO_ReadOutputDataBit                   0x08007d83   Thumb Code    18  stm32f4xx_gpio.o(.text)
    GPIO_ReadOutputData                      0x08007d95   Thumb Code     8  stm32f4xx_gpio.o(.text)
    GPIO_SetBits                             0x08007d9d   Thumb Code     4  stm32f4xx_gpio.o(.text)
    GPIO_ResetBits                           0x08007da1   Thumb Code     4  stm32f4xx_gpio.o(.text)
    GPIO_WriteBit                            0x08007da5   Thumb Code    10  stm32f4xx_gpio.o(.text)
    GPIO_Write                               0x08007daf   Thumb Code     4  stm32f4xx_gpio.o(.text)
    GPIO_ToggleBits                          0x08007db3   Thumb Code     8  stm32f4xx_gpio.o(.text)
    GPIO_PinAFConfig                         0x08007dbb   Thumb Code    70  stm32f4xx_gpio.o(.text)
    FSMC_NORSRAMDeInit                       0x08007e2d   Thumb Code    54  stm32f4xx_fsmc.o(.text)
    FSMC_NORSRAMInit                         0x08007e63   Thumb Code   230  stm32f4xx_fsmc.o(.text)
    FSMC_NORSRAMStructInit                   0x08007f49   Thumb Code    48  stm32f4xx_fsmc.o(.text)
    FSMC_NORSRAMCmd                          0x08007f79   Thumb Code    46  stm32f4xx_fsmc.o(.text)
    FSMC_NANDDeInit                          0x08007fa7   Thumb Code    62  stm32f4xx_fsmc.o(.text)
    FSMC_NANDInit                            0x08007fe5   Thumb Code   132  stm32f4xx_fsmc.o(.text)
    FSMC_NANDStructInit                      0x08008069   Thumb Code    54  stm32f4xx_fsmc.o(.text)
    FSMC_NANDCmd                             0x0800809f   Thumb Code    86  stm32f4xx_fsmc.o(.text)
    FSMC_NANDECCCmd                          0x080080f5   Thumb Code    86  stm32f4xx_fsmc.o(.text)
    FSMC_GetECC                              0x0800814b   Thumb Code    24  stm32f4xx_fsmc.o(.text)
    FSMC_PCCARDDeInit                        0x08008163   Thumb Code    36  stm32f4xx_fsmc.o(.text)
    FSMC_PCCARDInit                          0x08008187   Thumb Code   130  stm32f4xx_fsmc.o(.text)
    FSMC_PCCARDStructInit                    0x08008209   Thumb Code    60  stm32f4xx_fsmc.o(.text)
    FSMC_PCCARDCmd                           0x08008245   Thumb Code    44  stm32f4xx_fsmc.o(.text)
    FSMC_ITConfig                            0x08008271   Thumb Code   128  stm32f4xx_fsmc.o(.text)
    FSMC_GetFlagStatus                       0x080082f1   Thumb Code    54  stm32f4xx_fsmc.o(.text)
    FSMC_ClearFlag                           0x08008327   Thumb Code    74  stm32f4xx_fsmc.o(.text)
    FSMC_GetITStatus                         0x08008371   Thumb Code    62  stm32f4xx_fsmc.o(.text)
    FSMC_ClearITPendingBit                   0x080083af   Thumb Code    66  stm32f4xx_fsmc.o(.text)
    RCC_DeInit                               0x080083f5   Thumb Code    82  stm32f4xx_rcc.o(.text)
    RCC_HSEConfig                            0x08008447   Thumb Code    14  stm32f4xx_rcc.o(.text)
    RCC_GetFlagStatus                        0x08008455   Thumb Code    60  stm32f4xx_rcc.o(.text)
    RCC_WaitForHSEStartUp                    0x08008491   Thumb Code    56  stm32f4xx_rcc.o(.text)
    RCC_AdjustHSICalibrationValue            0x080084c9   Thumb Code    20  stm32f4xx_rcc.o(.text)
    RCC_HSICmd                               0x080084dd   Thumb Code     6  stm32f4xx_rcc.o(.text)
    RCC_LSEConfig                            0x080084e3   Thumb Code    46  stm32f4xx_rcc.o(.text)
    RCC_LSICmd                               0x08008511   Thumb Code     6  stm32f4xx_rcc.o(.text)
    RCC_PLLConfig                            0x08008517   Thumb Code    32  stm32f4xx_rcc.o(.text)
    RCC_PLLCmd                               0x08008537   Thumb Code     6  stm32f4xx_rcc.o(.text)
    RCC_PLLI2SConfig                         0x0800853d   Thumb Code    14  stm32f4xx_rcc.o(.text)
    RCC_PLLI2SCmd                            0x0800854b   Thumb Code     6  stm32f4xx_rcc.o(.text)
    RCC_PLLSAIConfig                         0x08008551   Thumb Code    20  stm32f4xx_rcc.o(.text)
    RCC_PLLSAICmd                            0x08008565   Thumb Code     6  stm32f4xx_rcc.o(.text)
    RCC_ClockSecuritySystemCmd               0x0800856b   Thumb Code     6  stm32f4xx_rcc.o(.text)
    RCC_MCO1Config                           0x08008571   Thumb Code    28  stm32f4xx_rcc.o(.text)
    RCC_MCO2Config                           0x0800858d   Thumb Code    28  stm32f4xx_rcc.o(.text)
    RCC_SYSCLKConfig                         0x080085a9   Thumb Code    20  stm32f4xx_rcc.o(.text)
    RCC_GetSYSCLKSource                      0x080085bd   Thumb Code    12  stm32f4xx_rcc.o(.text)
    RCC_HCLKConfig                           0x080085c9   Thumb Code    20  stm32f4xx_rcc.o(.text)
    RCC_PCLK1Config                          0x080085dd   Thumb Code    20  stm32f4xx_rcc.o(.text)
    RCC_PCLK2Config                          0x080085f1   Thumb Code    22  stm32f4xx_rcc.o(.text)
    RCC_GetClocksFreq                        0x08008607   Thumb Code   222  stm32f4xx_rcc.o(.text)
    RCC_RTCCLKConfig                         0x080086e5   Thumb Code    54  stm32f4xx_rcc.o(.text)
    RCC_RTCCLKCmd                            0x0800871b   Thumb Code     8  stm32f4xx_rcc.o(.text)
    RCC_BackupResetCmd                       0x08008723   Thumb Code     8  stm32f4xx_rcc.o(.text)
    RCC_I2SCLKConfig                         0x0800872b   Thumb Code     6  stm32f4xx_rcc.o(.text)
    RCC_SAIPLLI2SClkDivConfig                0x08008731   Thumb Code    26  stm32f4xx_rcc.o(.text)
    RCC_SAIPLLSAIClkDivConfig                0x0800874b   Thumb Code    28  stm32f4xx_rcc.o(.text)
    RCC_SAIBlockACLKConfig                   0x08008767   Thumb Code    20  stm32f4xx_rcc.o(.text)
    RCC_SAIBlockBCLKConfig                   0x0800877b   Thumb Code    20  stm32f4xx_rcc.o(.text)
    RCC_LTDCCLKDivConfig                     0x0800878f   Thumb Code    20  stm32f4xx_rcc.o(.text)
    RCC_TIMCLKPresConfig                     0x080087a3   Thumb Code     6  stm32f4xx_rcc.o(.text)
    RCC_AHB1PeriphClockCmd                   0x080087a9   Thumb Code    34  stm32f4xx_rcc.o(.text)
    RCC_AHB2PeriphClockCmd                   0x080087cb   Thumb Code    78  stm32f4xx_rcc.o(.text)
    RCC_AHB3PeriphClockCmd                   0x08008819   Thumb Code    34  stm32f4xx_rcc.o(.text)
    RCC_APB1PeriphClockCmd                   0x0800883b   Thumb Code    34  stm32f4xx_rcc.o(.text)
    RCC_APB2PeriphClockCmd                   0x0800885d   Thumb Code    34  stm32f4xx_rcc.o(.text)
    RCC_AHB1PeriphResetCmd                   0x0800887f   Thumb Code    34  stm32f4xx_rcc.o(.text)
    RCC_AHB2PeriphResetCmd                   0x080088a1   Thumb Code    34  stm32f4xx_rcc.o(.text)
    RCC_AHB3PeriphResetCmd                   0x080088c3   Thumb Code    34  stm32f4xx_rcc.o(.text)
    RCC_APB1PeriphResetCmd                   0x080088e5   Thumb Code    34  stm32f4xx_rcc.o(.text)
    RCC_APB2PeriphResetCmd                   0x08008907   Thumb Code    34  stm32f4xx_rcc.o(.text)
    RCC_AHB1PeriphClockLPModeCmd             0x08008929   Thumb Code    34  stm32f4xx_rcc.o(.text)
    RCC_AHB2PeriphClockLPModeCmd             0x0800894b   Thumb Code    34  stm32f4xx_rcc.o(.text)
    RCC_AHB3PeriphClockLPModeCmd             0x0800896d   Thumb Code    34  stm32f4xx_rcc.o(.text)
    RCC_APB1PeriphClockLPModeCmd             0x0800898f   Thumb Code    34  stm32f4xx_rcc.o(.text)
    RCC_APB2PeriphClockLPModeCmd             0x080089b1   Thumb Code    34  stm32f4xx_rcc.o(.text)
    RCC_LSEModeConfig                        0x080089d3   Thumb Code    40  stm32f4xx_rcc.o(.text)
    RCC_ITConfig                             0x080089fb   Thumb Code    34  stm32f4xx_rcc.o(.text)
    RCC_ClearFlag                            0x08008a1d   Thumb Code    18  stm32f4xx_rcc.o(.text)
    RCC_GetITStatus                          0x08008a2f   Thumb Code    22  stm32f4xx_rcc.o(.text)
    RCC_ClearITPendingBit                    0x08008a45   Thumb Code     8  stm32f4xx_rcc.o(.text)
    USART_DeInit                             0x08008a51   Thumb Code   206  stm32f4xx_usart.o(.text)
    USART_Init                               0x08008b1f   Thumb Code   204  stm32f4xx_usart.o(.text)
    USART_StructInit                         0x08008beb   Thumb Code    24  stm32f4xx_usart.o(.text)
    USART_ClockInit                          0x08008c03   Thumb Code    32  stm32f4xx_usart.o(.text)
    USART_ClockStructInit                    0x08008c23   Thumb Code    12  stm32f4xx_usart.o(.text)
    USART_Cmd                                0x08008c2f   Thumb Code    24  stm32f4xx_usart.o(.text)
    USART_SetPrescaler                       0x08008c47   Thumb Code    16  stm32f4xx_usart.o(.text)
    USART_OverSampling8Cmd                   0x08008c57   Thumb Code    22  stm32f4xx_usart.o(.text)
    USART_OneBitMethodCmd                    0x08008c6d   Thumb Code    24  stm32f4xx_usart.o(.text)
    USART_SendData                           0x08008c85   Thumb Code     8  stm32f4xx_usart.o(.text)
    USART_ReceiveData                        0x08008c8d   Thumb Code    10  stm32f4xx_usart.o(.text)
    USART_SetAddress                         0x08008c97   Thumb Code    18  stm32f4xx_usart.o(.text)
    USART_ReceiverWakeUpCmd                  0x08008ca9   Thumb Code    24  stm32f4xx_usart.o(.text)
    USART_WakeUpConfig                       0x08008cc1   Thumb Code    18  stm32f4xx_usart.o(.text)
    USART_LINBreakDetectLengthConfig         0x08008cd3   Thumb Code    18  stm32f4xx_usart.o(.text)
    USART_LINCmd                             0x08008ce5   Thumb Code    24  stm32f4xx_usart.o(.text)
    USART_SendBreak                          0x08008cfd   Thumb Code    10  stm32f4xx_usart.o(.text)
    USART_HalfDuplexCmd                      0x08008d07   Thumb Code    24  stm32f4xx_usart.o(.text)
    USART_SetGuardTime                       0x08008d1f   Thumb Code    16  stm32f4xx_usart.o(.text)
    USART_SmartCardCmd                       0x08008d2f   Thumb Code    24  stm32f4xx_usart.o(.text)
    USART_SmartCardNACKCmd                   0x08008d47   Thumb Code    24  stm32f4xx_usart.o(.text)
    USART_IrDAConfig                         0x08008d5f   Thumb Code    18  stm32f4xx_usart.o(.text)
    USART_IrDACmd                            0x08008d71   Thumb Code    24  stm32f4xx_usart.o(.text)
    USART_DMACmd                             0x08008d89   Thumb Code    18  stm32f4xx_usart.o(.text)
    USART_ITConfig                           0x08008d9b   Thumb Code    74  stm32f4xx_usart.o(.text)
    USART_GetFlagStatus                      0x08008de5   Thumb Code    26  stm32f4xx_usart.o(.text)
    USART_ClearFlag                          0x08008dff   Thumb Code    18  stm32f4xx_usart.o(.text)
    USART_GetITStatus                        0x08008e11   Thumb Code   118  stm32f4xx_usart.o(.text)
    USART_ClearITPendingBit                  0x08008e87   Thumb Code    30  stm32f4xx_usart.o(.text)
    TIM_DeInit                               0x08008ea5   Thumb Code   346  stm32f4xx_tim.o(.text)
    TIM_TimeBaseInit                         0x08008fff   Thumb Code   104  stm32f4xx_tim.o(.text)
    TIM_TimeBaseStructInit                   0x08009067   Thumb Code    18  stm32f4xx_tim.o(.text)
    TIM_PrescalerConfig                      0x08009079   Thumb Code     6  stm32f4xx_tim.o(.text)
    TIM_CounterModeConfig                    0x0800907f   Thumb Code    18  stm32f4xx_tim.o(.text)
    TIM_SetCounter                           0x08009091   Thumb Code     4  stm32f4xx_tim.o(.text)
    TIM_SetAutoreload                        0x08009095   Thumb Code     4  stm32f4xx_tim.o(.text)
    TIM_GetCounter                           0x08009099   Thumb Code     6  stm32f4xx_tim.o(.text)
    TIM_GetPrescaler                         0x0800909f   Thumb Code     6  stm32f4xx_tim.o(.text)
    TIM_UpdateDisableConfig                  0x080090a5   Thumb Code    24  stm32f4xx_tim.o(.text)
    TIM_UpdateRequestConfig                  0x080090bd   Thumb Code    24  stm32f4xx_tim.o(.text)
    TIM_ARRPreloadConfig                     0x080090d5   Thumb Code    24  stm32f4xx_tim.o(.text)
    TIM_SelectOnePulseMode                   0x080090ed   Thumb Code    18  stm32f4xx_tim.o(.text)
    TIM_SetClockDivision                     0x080090ff   Thumb Code    18  stm32f4xx_tim.o(.text)
    TIM_Cmd                                  0x08009111   Thumb Code    24  stm32f4xx_tim.o(.text)
    TIM_OC1Init                              0x08009129   Thumb Code   114  stm32f4xx_tim.o(.text)
    TIM_OC2Init                              0x0800919b   Thumb Code   154  stm32f4xx_tim.o(.text)
    TIM_OC3Init                              0x08009235   Thumb Code   204  stm32f4xx_tim.o(.text)
    TIM_OC4Init                              0x08009301   Thumb Code   112  stm32f4xx_tim.o(.text)
    TIM_OCStructInit                         0x08009371   Thumb Code    20  stm32f4xx_tim.o(.text)
    TIM_SelectOCxM                           0x08009385   Thumb Code    86  stm32f4xx_tim.o(.text)
    TIM_SetCompare1                          0x080093db   Thumb Code     4  stm32f4xx_tim.o(.text)
    TIM_SetCompare2                          0x080093df   Thumb Code     4  stm32f4xx_tim.o(.text)
    TIM_SetCompare3                          0x080093e3   Thumb Code     4  stm32f4xx_tim.o(.text)
    TIM_SetCompare4                          0x080093e7   Thumb Code     4  stm32f4xx_tim.o(.text)
    TIM_ForcedOC1Config                      0x080093eb   Thumb Code    18  stm32f4xx_tim.o(.text)
    TIM_ForcedOC2Config                      0x080093fd   Thumb Code    26  stm32f4xx_tim.o(.text)
    TIM_ForcedOC3Config                      0x08009417   Thumb Code    18  stm32f4xx_tim.o(.text)
    TIM_ForcedOC4Config                      0x08009429   Thumb Code    26  stm32f4xx_tim.o(.text)
    TIM_OC1PreloadConfig                     0x08009443   Thumb Code    18  stm32f4xx_tim.o(.text)
    TIM_OC2PreloadConfig                     0x08009455   Thumb Code    26  stm32f4xx_tim.o(.text)
    TIM_OC3PreloadConfig                     0x0800946f   Thumb Code    18  stm32f4xx_tim.o(.text)
    TIM_OC4PreloadConfig                     0x08009481   Thumb Code    26  stm32f4xx_tim.o(.text)
    TIM_OC1FastConfig                        0x0800949b   Thumb Code    18  stm32f4xx_tim.o(.text)
    TIM_OC2FastConfig                        0x080094ad   Thumb Code    26  stm32f4xx_tim.o(.text)
    TIM_OC3FastConfig                        0x080094c7   Thumb Code    18  stm32f4xx_tim.o(.text)
    TIM_OC4FastConfig                        0x080094d9   Thumb Code    26  stm32f4xx_tim.o(.text)
    TIM_ClearOC1Ref                          0x080094f3   Thumb Code    18  stm32f4xx_tim.o(.text)
    TIM_ClearOC2Ref                          0x08009505   Thumb Code    24  stm32f4xx_tim.o(.text)
    TIM_ClearOC3Ref                          0x0800951d   Thumb Code    18  stm32f4xx_tim.o(.text)
    TIM_ClearOC4Ref                          0x0800952f   Thumb Code    24  stm32f4xx_tim.o(.text)
    TIM_OC1PolarityConfig                    0x08009547   Thumb Code    18  stm32f4xx_tim.o(.text)
    TIM_OC1NPolarityConfig                   0x08009559   Thumb Code    18  stm32f4xx_tim.o(.text)
    TIM_OC2PolarityConfig                    0x0800956b   Thumb Code    26  stm32f4xx_tim.o(.text)
    TIM_OC2NPolarityConfig                   0x08009585   Thumb Code    26  stm32f4xx_tim.o(.text)
    TIM_OC3PolarityConfig                    0x0800959f   Thumb Code    26  stm32f4xx_tim.o(.text)
    TIM_OC3NPolarityConfig                   0x080095b9   Thumb Code    26  stm32f4xx_tim.o(.text)
    TIM_OC4PolarityConfig                    0x080095d3   Thumb Code    26  stm32f4xx_tim.o(.text)
    TIM_CCxCmd                               0x080095ed   Thumb Code    30  stm32f4xx_tim.o(.text)
    TIM_CCxNCmd                              0x0800960b   Thumb Code    30  stm32f4xx_tim.o(.text)
    TIM_SetIC4Prescaler                      0x08009629   Thumb Code    26  stm32f4xx_tim.o(.text)
    TIM_SetIC3Prescaler                      0x08009693   Thumb Code    18  stm32f4xx_tim.o(.text)
    TIM_SetIC2Prescaler                      0x080096ed   Thumb Code    26  stm32f4xx_tim.o(.text)
    TIM_SetIC1Prescaler                      0x08009761   Thumb Code    18  stm32f4xx_tim.o(.text)
    TIM_ICInit                               0x080097ad   Thumb Code   110  stm32f4xx_tim.o(.text)
    TIM_ICStructInit                         0x0800981b   Thumb Code    18  stm32f4xx_tim.o(.text)
    TIM_PWMIConfig                           0x0800982d   Thumb Code   124  stm32f4xx_tim.o(.text)
    TIM_GetCapture1                          0x080098a9   Thumb Code     6  stm32f4xx_tim.o(.text)
    TIM_GetCapture2                          0x080098af   Thumb Code     6  stm32f4xx_tim.o(.text)
    TIM_GetCapture3                          0x080098b5   Thumb Code     6  stm32f4xx_tim.o(.text)
    TIM_GetCapture4                          0x080098bb   Thumb Code     6  stm32f4xx_tim.o(.text)
    TIM_BDTRConfig                           0x080098c1   Thumb Code    32  stm32f4xx_tim.o(.text)
    TIM_BDTRStructInit                       0x080098e1   Thumb Code    18  stm32f4xx_tim.o(.text)
    TIM_CtrlPWMOutputs                       0x080098f3   Thumb Code    30  stm32f4xx_tim.o(.text)
    TIM_SelectCOM                            0x08009911   Thumb Code    24  stm32f4xx_tim.o(.text)
    TIM_CCPreloadControl                     0x08009929   Thumb Code    24  stm32f4xx_tim.o(.text)
    TIM_ITConfig                             0x08009941   Thumb Code    18  stm32f4xx_tim.o(.text)
    TIM_GenerateEvent                        0x08009953   Thumb Code     4  stm32f4xx_tim.o(.text)
    TIM_GetFlagStatus                        0x08009957   Thumb Code    18  stm32f4xx_tim.o(.text)
    TIM_ClearFlag                            0x08009969   Thumb Code     6  stm32f4xx_tim.o(.text)
    TIM_GetITStatus                          0x0800996f   Thumb Code    34  stm32f4xx_tim.o(.text)
    TIM_ClearITPendingBit                    0x08009991   Thumb Code     6  stm32f4xx_tim.o(.text)
    TIM_DMAConfig                            0x08009997   Thumb Code    10  stm32f4xx_tim.o(.text)
    TIM_DMACmd                               0x080099a1   Thumb Code    18  stm32f4xx_tim.o(.text)
    TIM_SelectCCDMA                          0x080099b3   Thumb Code    24  stm32f4xx_tim.o(.text)
    TIM_InternalClockConfig                  0x080099cb   Thumb Code    12  stm32f4xx_tim.o(.text)
    TIM_SelectInputTrigger                   0x080099d7   Thumb Code    18  stm32f4xx_tim.o(.text)
    TIM_ITRxExternalClockConfig              0x080099e9   Thumb Code    24  stm32f4xx_tim.o(.text)
    TIM_TIxExternalClockConfig               0x08009a01   Thumb Code    62  stm32f4xx_tim.o(.text)
    TIM_ETRConfig                            0x08009a3f   Thumb Code    28  stm32f4xx_tim.o(.text)
    TIM_ETRClockMode1Config                  0x08009a5b   Thumb Code    54  stm32f4xx_tim.o(.text)
    TIM_ETRClockMode2Config                  0x08009a91   Thumb Code    32  stm32f4xx_tim.o(.text)
    TIM_SelectOutputTrigger                  0x08009ab1   Thumb Code    18  stm32f4xx_tim.o(.text)
    TIM_SelectSlaveMode                      0x08009ac3   Thumb Code    18  stm32f4xx_tim.o(.text)
    TIM_SelectMasterSlaveMode                0x08009ad5   Thumb Code    18  stm32f4xx_tim.o(.text)
    TIM_EncoderInterfaceConfig               0x08009ae7   Thumb Code    66  stm32f4xx_tim.o(.text)
    TIM_SelectHallSensor                     0x08009b29   Thumb Code    24  stm32f4xx_tim.o(.text)
    TIM_RemapConfig                          0x08009b41   Thumb Code     6  stm32f4xx_tim.o(.text)
    lv_disp_get_scr_act                      0x08009b49   Thumb Code    22  lv_disp.o(.text)
    lv_disp_get_scr_prev                     0x08009b5f   Thumb Code    22  lv_disp.o(.text)
    lv_disp_load_scr                         0x08009b75   Thumb Code    28  lv_disp.o(.text)
    lv_disp_get_layer_top                    0x08009b91   Thumb Code    22  lv_disp.o(.text)
    lv_disp_get_layer_sys                    0x08009ba7   Thumb Code    22  lv_disp.o(.text)
    lv_disp_assign_screen                    0x08009bbd   Thumb Code    50  lv_disp.o(.text)
    lv_disp_set_bg_color                     0x08009bef   Thumb Code    74  lv_disp.o(.text)
    lv_disp_set_bg_image                     0x08009c39   Thumb Code    66  lv_disp.o(.text)
    lv_disp_set_bg_opa                       0x08009c7b   Thumb Code    68  lv_disp.o(.text)
    lv_scr_load_anim                         0x08009d39   Thumb Code   640  lv_disp.o(.text)
    lv_disp_get_inactive_time                0x08009fb9   Thumb Code    88  lv_disp.o(.text)
    lv_disp_trig_activity                    0x0800a011   Thumb Code    28  lv_disp.o(.text)
    _lv_disp_get_refr_task                   0x0800a02d   Thumb Code    22  lv_disp.o(.text)
    _lv_group_init                           0x0800a081   Thumb Code    12  lv_group.o(.text)
    lv_group_create                          0x0800a08d   Thumb Code   108  lv_group.o(.text)
    lv_group_del                             0x0800a0f9   Thumb Code    80  lv_group.o(.text)
    lv_group_focus_prev                      0x0800a267   Thumb Code    16  lv_group.o(.text)
    lv_group_focus_next                      0x0800a277   Thumb Code    16  lv_group.o(.text)
    lv_group_add_obj                         0x0800a2c3   Thumb Code   126  lv_group.o(.text)
    lv_group_remove_obj                      0x0800a341   Thumb Code   152  lv_group.o(.text)
    lv_group_remove_all_objs                 0x0800a3d9   Thumb Code    70  lv_group.o(.text)
    lv_group_get_focused                     0x0800a41f   Thumb Code    22  lv_group.o(.text)
    lv_group_set_editing                     0x0800a435   Thumb Code   132  lv_group.o(.text)
    lv_group_focus_obj                       0x0800a4b9   Thumb Code   196  lv_group.o(.text)
    lv_group_focus_freeze                    0x0800a57d   Thumb Code    24  lv_group.o(.text)
    lv_group_send_data                       0x0800a595   Thumb Code    62  lv_group.o(.text)
    lv_group_set_focus_cb                    0x0800a5d3   Thumb Code     4  lv_group.o(.text)
    lv_group_set_click_focus                 0x0800a5d7   Thumb Code    10  lv_group.o(.text)
    lv_group_set_refocus_policy              0x0800a5e1   Thumb Code    10  lv_group.o(.text)
    lv_group_set_wrap                        0x0800a5eb   Thumb Code    10  lv_group.o(.text)
    lv_group_get_focus_cb                    0x0800a5f5   Thumb Code    12  lv_group.o(.text)
    lv_group_get_editing                     0x0800a601   Thumb Code    16  lv_group.o(.text)
    lv_group_get_click_focus                 0x0800a611   Thumb Code    16  lv_group.o(.text)
    lv_group_get_wrap                        0x0800a621   Thumb Code    16  lv_group.o(.text)
    lv_indev_reset                           0x0800a631   Thumb Code   116  lv_indev.o(.text)
    _lv_indev_init                           0x0800a6a5   Thumb Code    12  lv_indev.o(.text)
    lv_indev_search_obj                      0x0800b0f1   Thumb Code   114  lv_indev.o(.text)
    _lv_indev_read_task                      0x0800bdcf   Thumb Code   258  lv_indev.o(.text)
    lv_indev_get_act                         0x0800bed1   Thumb Code     6  lv_indev.o(.text)
    lv_indev_get_type                        0x0800bed7   Thumb Code    12  lv_indev.o(.text)
    lv_indev_reset_long_press                0x0800bee3   Thumb Code    30  lv_indev.o(.text)
    lv_indev_enable                          0x0800bf01   Thumb Code    22  lv_indev.o(.text)
    lv_indev_set_cursor                      0x0800bf17   Thumb Code    58  lv_indev.o(.text)
    lv_indev_set_group                       0x0800bf51   Thumb Code    16  lv_indev.o(.text)
    lv_indev_set_button_points               0x0800bf61   Thumb Code    10  lv_indev.o(.text)
    lv_indev_get_point                       0x0800bf6b   Thumb Code    44  lv_indev.o(.text)
    lv_indev_get_gesture_dir                 0x0800bf97   Thumb Code     8  lv_indev.o(.text)
    lv_indev_get_key                         0x0800bf9f   Thumb Code    16  lv_indev.o(.text)
    lv_indev_is_dragging                     0x0800bfaf   Thumb Code    34  lv_indev.o(.text)
    lv_indev_get_vect                        0x0800bfd1   Thumb Code    42  lv_indev.o(.text)
    lv_indev_finish_drag                     0x0800bffb   Thumb Code   110  lv_indev.o(.text)
    lv_indev_wait_release                    0x0800c069   Thumb Code    22  lv_indev.o(.text)
    lv_indev_get_obj_act                     0x0800c07f   Thumb Code     6  lv_indev.o(.text)
    lv_indev_get_read_task                   0x0800c085   Thumb Code    12  lv_indev.o(.text)
    lv_obj_get_parent                        0x0800c0f3   Thumb Code    34  lv_obj.o(.text)
    lv_signal_send                           0x0800c115   Thumb Code    40  lv_obj.o(.text)
    lv_obj_get_state                         0x0800c13d   Thumb Code    68  lv_obj.o(.text)
    lv_obj_get_style_list                    0x0800c181   Thumb Code    46  lv_obj.o(.text)
    _lv_obj_get_style_ptr                    0x0800c1af   Thumb Code   264  lv_obj.o(.text)
    _lv_obj_get_style_opa                    0x0800c2b7   Thumb Code   278  lv_obj.o(.text)
    _lv_obj_get_style_int                    0x0800c7bd   Thumb Code   584  lv_obj.o(.text)
    lv_obj_get_screen                        0x0800ca17   Thumb Code    54  lv_obj.o(.text)
    lv_obj_get_disp                          0x0800ca4d   Thumb Code   116  lv_obj.o(.text)
    lv_obj_get_hidden                        0x0800cac1   Thumb Code    42  lv_obj.o(.text)
    lv_obj_area_is_visible                   0x0800caeb   Thumb Code   226  lv_obj.o(.text)
    lv_obj_invalidate_area                   0x0800cbcd   Thumb Code    74  lv_obj.o(.text)
    lv_obj_invalidate                        0x0800cc17   Thumb Code   104  lv_obj.o(.text)
    lv_obj_get_child                         0x0800cc7f   Thumb Code    62  lv_obj.o(.text)
    lv_obj_refresh_style                     0x0800ce8d   Thumb Code   398  lv_obj.o(.text)
    _lv_obj_set_style_local_opa              0x0800d099   Thumb Code    60  lv_obj.o(.text)
    _lv_obj_get_style_color                  0x0800d0d5   Thumb Code   152  lv_obj.o(.text)
    lv_init                                  0x0800d16d   Thumb Code   136  lv_obj.o(.text)
    lv_deinit                                0x0800d1f5   Thumb Code    24  lv_obj.o(.text)
    lv_obj_get_y                             0x0800d20d   Thumb Code    60  lv_obj.o(.text)
    lv_obj_get_x                             0x0800d249   Thumb Code    60  lv_obj.o(.text)
    lv_obj_get_coords                        0x0800d2d5   Thumb Code    46  lv_obj.o(.text)
    lv_obj_set_pos                           0x0800d303   Thumb Code   194  lv_obj.o(.text)
    lv_obj_get_base_dir                      0x0800d3c5   Thumb Code    36  lv_obj.o(.text)
    lv_obj_init_draw_rect_dsc                0x0800d3e9   Thumb Code   878  lv_obj.o(.text)
    lv_obj_clean_style_list                  0x0800d97f   Thumb Code    42  lv_obj.o(.text)
    lv_obj_get_width                         0x0800db6d   Thumb Code    40  lv_obj.o(.text)
    lv_obj_set_state                         0x0800deb9   Thumb Code   432  lv_obj.o(.text)
    lv_obj_clear_state                       0x0800e069   Thumb Code    58  lv_obj.o(.text)
    lv_obj_get_focus_parent                  0x0800e0a3   Thumb Code    12  lv_obj.o(.text)
    lv_obj_get_focused_obj                   0x0800e0af   Thumb Code    38  lv_obj.o(.text)
    lv_obj_add_state                         0x0800e0d5   Thumb Code    58  lv_obj.o(.text)
    lv_obj_get_group                         0x0800e10f   Thumb Code    34  lv_obj.o(.text)
    lv_obj_refresh_ext_draw_pad              0x0800e131   Thumb Code    46  lv_obj.o(.text)
    lv_obj_set_y                             0x0800e15f   Thumb Code    52  lv_obj.o(.text)
    lv_obj_set_x                             0x0800e193   Thumb Code    74  lv_obj.o(.text)
    lv_obj_align                             0x0800e279   Thumb Code   126  lv_obj.o(.text)
    lv_obj_get_height                        0x0800e2f7   Thumb Code    40  lv_obj.o(.text)
    lv_obj_align_mid                         0x0800e5e1   Thumb Code   128  lv_obj.o(.text)
    lv_obj_realign                           0x0800e661   Thumb Code    92  lv_obj.o(.text)
    lv_obj_get_draw_rect_ext_pad_size        0x0800e6bd   Thumb Code   652  lv_obj.o(.text)
    lv_obj_is_protected                      0x0800e949   Thumb Code    48  lv_obj.o(.text)
    lv_obj_handle_get_type_signal            0x0800e979   Thumb Code    34  lv_obj.o(.text)
    lv_obj_create                            0x0800eabf   Thumb Code   984  lv_obj.o(.text)
    lv_event_send_func                       0x0800eeb1   Thumb Code   176  lv_obj.o(.text)
    lv_event_send                            0x0800ef61   Thumb Code    62  lv_obj.o(.text)
    lv_obj_del                               0x0800f08b   Thumb Code   104  lv_obj.o(.text)
    lv_obj_del_anim_ready_cb                 0x0800f0f3   Thumb Code    12  lv_obj.o(.text)
    lv_obj_del_async                         0x0800f125   Thumb Code    40  lv_obj.o(.text)
    lv_obj_clean                             0x0800f14d   Thumb Code    66  lv_obj.o(.text)
    lv_obj_is_visible                        0x0800f18f   Thumb Code   102  lv_obj.o(.text)
    lv_obj_set_parent                        0x0800f1f5   Thumb Code   254  lv_obj.o(.text)
    lv_obj_move_foreground                   0x0800f2f3   Thumb Code    88  lv_obj.o(.text)
    lv_obj_move_background                   0x0800f34b   Thumb Code    88  lv_obj.o(.text)
    lv_obj_set_size                          0x0800f3a3   Thumb Code   206  lv_obj.o(.text)
    lv_obj_set_width                         0x0800f471   Thumb Code    52  lv_obj.o(.text)
    lv_obj_set_height                        0x0800f4a5   Thumb Code    52  lv_obj.o(.text)
    lv_obj_set_width_fit                     0x0800f4d9   Thumb Code    44  lv_obj.o(.text)
    lv_obj_set_height_fit                    0x0800f505   Thumb Code    44  lv_obj.o(.text)
    lv_obj_set_width_margin                  0x0800f531   Thumb Code    44  lv_obj.o(.text)
    lv_obj_set_height_margin                 0x0800f55d   Thumb Code    44  lv_obj.o(.text)
    lv_obj_align_x                           0x0800f589   Thumb Code    94  lv_obj.o(.text)
    lv_obj_align_y                           0x0800f5e7   Thumb Code    94  lv_obj.o(.text)
    lv_obj_align_mid_x                       0x0800f645   Thumb Code    94  lv_obj.o(.text)
    lv_obj_align_mid_y                       0x0800f6a3   Thumb Code    98  lv_obj.o(.text)
    lv_obj_set_auto_realign                  0x0800f705   Thumb Code    46  lv_obj.o(.text)
    lv_obj_set_ext_click_area                0x0800f733   Thumb Code    74  lv_obj.o(.text)
    lv_obj_add_style                         0x0800f77d   Thumb Code    64  lv_obj.o(.text)
    lv_obj_remove_style                      0x0800f7bd   Thumb Code    64  lv_obj.o(.text)
    lv_obj_reset_style_list                  0x0800f7fd   Thumb Code    26  lv_obj.o(.text)
    _lv_obj_set_style_local_int              0x0800f817   Thumb Code    60  lv_obj.o(.text)
    _lv_obj_set_style_local_color            0x0800f853   Thumb Code    58  lv_obj.o(.text)
    _lv_obj_set_style_local_ptr              0x0800f88d   Thumb Code    60  lv_obj.o(.text)
    lv_obj_get_local_style                   0x0800f8c9   Thumb Code    50  lv_obj.o(.text)
    lv_obj_remove_style_local_prop           0x0800f8fb   Thumb Code    64  lv_obj.o(.text)
    lv_obj_report_style_mod                  0x0800f9e7   Thumb Code    66  lv_obj.o(.text)
    _lv_obj_disable_style_caching            0x0800fa29   Thumb Code    84  lv_obj.o(.text)
    lv_obj_set_hidden                        0x0800fa7d   Thumb Code    96  lv_obj.o(.text)
    lv_obj_set_adv_hittest                   0x0800fadd   Thumb Code    52  lv_obj.o(.text)
    lv_obj_set_click                         0x0800fb11   Thumb Code    50  lv_obj.o(.text)
    lv_obj_set_top                           0x0800fb43   Thumb Code    50  lv_obj.o(.text)
    lv_obj_set_drag                          0x0800fb75   Thumb Code    62  lv_obj.o(.text)
    lv_obj_set_drag_dir                      0x0800fbb3   Thumb Code    62  lv_obj.o(.text)
    lv_obj_set_drag_throw                    0x0800fbf1   Thumb Code    50  lv_obj.o(.text)
    lv_obj_set_drag_parent                   0x0800fc23   Thumb Code    50  lv_obj.o(.text)
    lv_obj_set_gesture_parent                0x0800fc55   Thumb Code    18  lv_obj.o(.text)
    lv_obj_is_focused                        0x0800fc67   Thumb Code    52  lv_obj.o(.text)
    lv_obj_set_focus_parent                  0x0800fc9b   Thumb Code   108  lv_obj.o(.text)
    lv_obj_set_parent_event                  0x0800fd07   Thumb Code    50  lv_obj.o(.text)
    lv_obj_set_base_dir                      0x0800fd75   Thumb Code    54  lv_obj.o(.text)
    lv_obj_add_protect                       0x0800fdab   Thumb Code    44  lv_obj.o(.text)
    lv_obj_clear_protect                     0x0800fdd7   Thumb Code    48  lv_obj.o(.text)
    lv_obj_finish_transitions                0x0800fe07   Thumb Code    68  lv_obj.o(.text)
    lv_obj_set_event_cb                      0x0800fe4b   Thumb Code    36  lv_obj.o(.text)
    lv_event_send_refresh                    0x0800fe6f   Thumb Code    16  lv_obj.o(.text)
    lv_event_send_refresh_recursive          0x0800fe7f   Thumb Code   138  lv_obj.o(.text)
    lv_event_get_data                        0x0800ff09   Thumb Code     6  lv_obj.o(.text)
    lv_obj_set_signal_cb                     0x0800ff0f   Thumb Code    36  lv_obj.o(.text)
    lv_obj_set_design_cb                     0x0800ff33   Thumb Code    36  lv_obj.o(.text)
    lv_obj_allocate_ext_attr                 0x0800ff57   Thumb Code    54  lv_obj.o(.text)
    lv_obj_get_child_back                    0x0800ff8d   Thumb Code    60  lv_obj.o(.text)
    lv_obj_count_children                    0x0800ffc9   Thumb Code    64  lv_obj.o(.text)
    lv_obj_count_children_recursive          0x08010009   Thumb Code    74  lv_obj.o(.text)
    lv_obj_get_inner_coords                  0x08010053   Thumb Code   114  lv_obj.o(.text)
    lv_obj_get_width_fit                     0x080100c5   Thumb Code    64  lv_obj.o(.text)
    lv_obj_get_height_fit                    0x08010105   Thumb Code    64  lv_obj.o(.text)
    lv_obj_get_height_margin                 0x08010145   Thumb Code    38  lv_obj.o(.text)
    lv_obj_get_width_margin                  0x0801016b   Thumb Code    38  lv_obj.o(.text)
    lv_obj_get_width_grid                    0x08010191   Thumb Code    58  lv_obj.o(.text)
    lv_obj_get_height_grid                   0x080101cb   Thumb Code    58  lv_obj.o(.text)
    lv_obj_get_auto_realign                  0x08010205   Thumb Code    40  lv_obj.o(.text)
    lv_obj_get_ext_click_pad_left            0x0801022d   Thumb Code    36  lv_obj.o(.text)
    lv_obj_get_ext_click_pad_right           0x08010251   Thumb Code    36  lv_obj.o(.text)
    lv_obj_get_ext_click_pad_top             0x08010275   Thumb Code    36  lv_obj.o(.text)
    lv_obj_get_ext_click_pad_bottom          0x08010299   Thumb Code    36  lv_obj.o(.text)
    lv_obj_get_ext_draw_pad                  0x080102bd   Thumb Code    36  lv_obj.o(.text)
    lv_obj_get_adv_hittest                   0x080102e1   Thumb Code    46  lv_obj.o(.text)
    lv_obj_get_click                         0x0801030f   Thumb Code    40  lv_obj.o(.text)
    lv_obj_get_top                           0x08010337   Thumb Code    40  lv_obj.o(.text)
    lv_obj_get_drag                          0x0801035f   Thumb Code    40  lv_obj.o(.text)
    lv_obj_get_drag_dir                      0x08010387   Thumb Code    40  lv_obj.o(.text)
    lv_obj_get_drag_throw                    0x080103af   Thumb Code    40  lv_obj.o(.text)
    lv_obj_get_drag_parent                   0x080103d7   Thumb Code    12  lv_obj.o(.text)
    lv_obj_get_gesture_parent                0x080103e3   Thumb Code    12  lv_obj.o(.text)
    lv_obj_get_parent_event                  0x080103ef   Thumb Code    40  lv_obj.o(.text)
    lv_obj_get_protect                       0x08010417   Thumb Code    36  lv_obj.o(.text)
    lv_obj_get_signal_cb                     0x0801043b   Thumb Code    34  lv_obj.o(.text)
    lv_obj_get_design_cb                     0x0801045d   Thumb Code    34  lv_obj.o(.text)
    lv_obj_get_event_cb                      0x0801047f   Thumb Code    34  lv_obj.o(.text)
    lv_obj_get_ext_attr                      0x080104a1   Thumb Code    34  lv_obj.o(.text)
    lv_obj_get_type                          0x080104c3   Thumb Code   140  lv_obj.o(.text)
    lv_obj_is_point_on_coords                0x0801054f   Thumb Code    82  lv_obj.o(.text)
    lv_obj_hittest                           0x080105a1   Thumb Code    48  lv_obj.o(.text)
    lv_obj_init_draw_label_dsc               0x080105d1   Thumb Code   196  lv_obj.o(.text)
    lv_obj_init_draw_img_dsc                 0x08010695   Thumb Code   178  lv_obj.o(.text)
    lv_obj_init_draw_line_dsc                0x08010747   Thumb Code   204  lv_obj.o(.text)
    lv_obj_fade_in                           0x08010853   Thumb Code    76  lv_obj.o(.text)
    lv_obj_fade_out                          0x0801089f   Thumb Code    68  lv_obj.o(.text)
    lv_debug_check_obj_type                  0x080108e3   Thumb Code    68  lv_obj.o(.text)
    lv_debug_check_obj_valid                 0x08010965   Thumb Code    88  lv_obj.o(.text)
    _lv_refr_init                            0x08010e87   Thumb Code     2  lv_refr.o(.text)
    _lv_refr_get_disp_refreshing             0x08010e89   Thumb Code     6  lv_refr.o(.text)
    _lv_disp_refr_task                       0x080115e3   Thumb Code   464  lv_refr.o(.text)
    lv_refr_now                              0x080117b3   Thumb Code    50  lv_refr.o(.text)
    _lv_inv_area                             0x080117e5   Thumb Code   252  lv_refr.o(.text)
    _lv_refr_set_disp_refreshing             0x080118e1   Thumb Code     6  lv_refr.o(.text)
    lv_style_init                            0x08011959   Thumb Code    14  lv_style.o(.text)
    _lv_style_get_mem_size                   0x080119a5   Thumb Code    46  lv_style.o(.text)
    lv_style_copy                            0x080119d3   Thumb Code    46  lv_style.o(.text)
    lv_style_remove_prop                     0x08011a79   Thumb Code   118  lv_style.o(.text)
    lv_style_list_init                       0x08011aef   Thumb Code    14  lv_style.o(.text)
    _lv_style_list_remove_style              0x08011afd   Thumb Code   228  lv_style.o(.text)
    _lv_style_list_add_style                 0x08011be1   Thumb Code   162  lv_style.o(.text)
    lv_style_reset                           0x08011ce1   Thumb Code    16  lv_style.o(.text)
    _lv_style_list_get_transition_style      0x08011cf1   Thumb Code    20  lv_style.o(.text)
    lv_style_list_get_local_style            0x08011d05   Thumb Code    34  lv_style.o(.text)
    _lv_style_list_reset                     0x08011d27   Thumb Code   128  lv_style.o(.text)
    lv_style_list_copy                       0x08011da7   Thumb Code   266  lv_style.o(.text)
    _lv_style_set_int                        0x08011eb1   Thumb Code   208  lv_style.o(.text)
    _lv_style_set_color                      0x08011f81   Thumb Code   194  lv_style.o(.text)
    _lv_style_set_opa                        0x08012043   Thumb Code   194  lv_style.o(.text)
    _lv_style_set_ptr                        0x08012105   Thumb Code   194  lv_style.o(.text)
    _lv_style_get_int                        0x080121c7   Thumb Code    90  lv_style.o(.text)
    _lv_style_get_opa                        0x08012221   Thumb Code    90  lv_style.o(.text)
    _lv_style_get_color                      0x0801227b   Thumb Code    90  lv_style.o(.text)
    _lv_style_get_ptr                        0x080122d5   Thumb Code    90  lv_style.o(.text)
    _lv_style_list_add_trans_style           0x0801232f   Thumb Code   116  lv_style.o(.text)
    _lv_style_list_set_local_int             0x080123a3   Thumb Code    32  lv_style.o(.text)
    _lv_style_list_set_local_opa             0x080123c3   Thumb Code    32  lv_style.o(.text)
    _lv_style_list_set_local_color           0x080123e3   Thumb Code    26  lv_style.o(.text)
    _lv_style_list_set_local_ptr             0x080123fd   Thumb Code    32  lv_style.o(.text)
    _lv_style_list_get_int                   0x0801241d   Thumb Code   152  lv_style.o(.text)
    _lv_style_list_get_color                 0x080124b5   Thumb Code   152  lv_style.o(.text)
    _lv_style_list_get_opa                   0x0801254d   Thumb Code   152  lv_style.o(.text)
    _lv_style_list_get_ptr                   0x080125e5   Thumb Code   142  lv_style.o(.text)
    lv_debug_check_style                     0x08012673   Thumb Code    12  lv_style.o(.text)
    lv_debug_check_style_list                0x0801267f   Thumb Code    12  lv_style.o(.text)
    _lv_blend_fill                           0x08012d31   Thumb Code   258  lv_draw_blend.o(.text)
    _lv_blend_map                            0x08013469   Thumb Code   266  lv_draw_blend.o(.text)
    lv_draw_img_dsc_init                     0x0801393b   Thumb Code    36  lv_draw_img.o(.text)
    lv_img_cf_has_alpha                      0x08013f2f   Thumb Code    58  lv_draw_img.o(.text)
    lv_img_cf_is_chroma_keyed                0x08013f69   Thumb Code    44  lv_draw_img.o(.text)
    lv_draw_img                              0x0801416d   Thumb Code    68  lv_draw_img.o(.text)
    lv_img_cf_get_px_size                    0x080141b1   Thumb Code    76  lv_draw_img.o(.text)
    lv_img_src_get_type                      0x080141fd   Thumb Code    42  lv_draw_img.o(.text)
    lv_draw_label_dsc_init                   0x080142dd   Thumb Code    56  lv_draw_label.o(.text)
    lv_draw_label                            0x08014bef   Thumb Code  1560  lv_draw_label.o(.text)
    lv_draw_line_dsc_init                    0x08015221   Thumb Code    32  lv_draw_line.o(.text)
    lv_draw_line                             0x08015ba9   Thumb Code   500  lv_draw_line.o(.text)
    lv_draw_mask_add                         0x08015dcf   Thumb Code    54  lv_draw_mask.o(.text)
    lv_draw_mask_apply                       0x08015e05   Thumb Code    84  lv_draw_mask.o(.text)
    lv_draw_mask_remove_id                   0x08015e59   Thumb Code    30  lv_draw_mask.o(.text)
    lv_draw_mask_remove_custom               0x08015e77   Thumb Code    52  lv_draw_mask.o(.text)
    lv_draw_mask_get_cnt                     0x08015eab   Thumb Code    28  lv_draw_mask.o(.text)
    lv_draw_mask_line_points_init            0x080164a3   Thumb Code   404  lv_draw_mask.o(.text)
    lv_draw_mask_line_angle_init             0x08016637   Thumb Code    74  lv_draw_mask.o(.text)
    lv_draw_mask_angle_init                  0x08016ab1   Thumb Code   228  lv_draw_mask.o(.text)
    lv_draw_mask_radius_init                 0x0801713d   Thumb Code    90  lv_draw_mask.o(.text)
    lv_draw_mask_fade_init                   0x0801729b   Thumb Code    50  lv_draw_mask.o(.text)
    lv_draw_mask_map_init                    0x0801737b   Thumb Code    30  lv_draw_mask.o(.text)
    lv_draw_rect_dsc_init                    0x080173e3   Thumb Code   120  lv_draw_rect.o(.text)
    lv_draw_rect                             0x08019877   Thumb Code    94  lv_draw_rect.o(.text)
    lv_draw_px                               0x080198d5   Thumb Code     2  lv_draw_rect.o(.text)
    lv_img_buf_get_px_color                  0x08019a47   Thumb Code   350  lv_img_buf.o(.text)
    lv_img_buf_get_px_alpha                  0x08019ba5   Thumb Code   298  lv_img_buf.o(.text)
    lv_img_buf_set_px_alpha                  0x08019ccf   Thumb Code   292  lv_img_buf.o(.text)
    lv_img_buf_set_px_color                  0x08019df3   Thumb Code   378  lv_img_buf.o(.text)
    lv_img_buf_set_palette                   0x08019f6d   Thumb Code   192  lv_img_buf.o(.text)
    lv_img_buf_get_img_size                  0x0801a02d   Thumb Code   168  lv_img_buf.o(.text)
    lv_img_buf_alloc                         0x0801a0d5   Thumb Code   126  lv_img_buf.o(.text)
    lv_img_buf_free                          0x0801a153   Thumb Code    24  lv_img_buf.o(.text)
    _lv_img_buf_transform_init               0x0801a16b   Thumb Code   296  lv_img_buf.o(.text)
    _lv_img_buf_get_transformed_area         0x0801a293   Thumb Code   878  lv_img_buf.o(.text)
    _lv_img_buf_transform_anti_alias         0x0801a601   Thumb Code   824  lv_img_buf.o(.text)
    _lv_img_cache_open                       0x0801a939   Thumb Code   372  lv_img_cache.o(.text)
    lv_img_cache_invalidate_src              0x0801aaad   Thumb Code    94  lv_img_cache.o(.text)
    lv_img_cache_set_size                    0x0801ab0b   Thumb Code   142  lv_img_cache.o(.text)
    lv_img_decoder_built_in_close            0x0801abb5   Thumb Code    42  lv_img_decoder.o(.text)
    lv_img_decoder_set_close_cb              0x0801abdf   Thumb Code     4  lv_img_decoder.o(.text)
    lv_img_decoder_built_in_read_line        0x0801af11   Thumb Code   200  lv_img_decoder.o(.text)
    lv_img_decoder_set_read_line_cb          0x0801afd9   Thumb Code     4  lv_img_decoder.o(.text)
    lv_img_decoder_built_in_open             0x0801afdd   Thumb Code   482  lv_img_decoder.o(.text)
    lv_img_decoder_set_open_cb               0x0801b1bf   Thumb Code     4  lv_img_decoder.o(.text)
    lv_img_decoder_built_in_info             0x0801b1c3   Thumb Code   122  lv_img_decoder.o(.text)
    lv_img_decoder_set_info_cb               0x0801b23d   Thumb Code     4  lv_img_decoder.o(.text)
    lv_img_decoder_create                    0x0801b241   Thumb Code    56  lv_img_decoder.o(.text)
    _lv_img_decoder_init                     0x0801b279   Thumb Code    92  lv_img_decoder.o(.text)
    lv_img_decoder_get_info                  0x0801b2d5   Thumb Code   100  lv_img_decoder.o(.text)
    lv_img_decoder_open                      0x0801b339   Thumb Code   152  lv_img_decoder.o(.text)
    lv_img_decoder_read_line                 0x0801b3d1   Thumb Code    52  lv_img_decoder.o(.text)
    lv_img_decoder_close                     0x0801b405   Thumb Code    40  lv_img_decoder.o(.text)
    lv_img_decoder_delete                    0x0801b42d   Thumb Code    20  lv_img_decoder.o(.text)
    lv_font_get_glyph_bitmap                 0x0801b445   Thumb Code    16  lv_font.o(.text)
    lv_font_get_glyph_dsc                    0x0801b455   Thumb Code    30  lv_font.o(.text)
    lv_font_get_glyph_width                  0x0801b473   Thumb Code    34  lv_font.o(.text)
    lv_font_get_bitmap_fmt_txt               0x0801b97d   Thumb Code   272  lv_font_fmt_txt.o(.text)
    lv_font_get_glyph_dsc_fmt_txt            0x0801bb99   Thumb Code   186  lv_font_fmt_txt.o(.text)
    _lv_font_clean_up_fmt_txt                0x0801bc53   Thumb Code    24  lv_font_fmt_txt.o(.text)
    lv_disp_drv_init                         0x0801bc89   Thumb Code    78  lv_hal_disp.o(.text)
    lv_disp_buf_init                         0x0801bcd7   Thumb Code    34  lv_hal_disp.o(.text)
    lv_disp_is_double_buf                    0x0801bcf9   Thumb Code    22  lv_hal_disp.o(.text)
    lv_disp_is_true_double_buf               0x0801bd0f   Thumb Code    36  lv_hal_disp.o(.text)
    lv_disp_drv_register                     0x0801bd33   Thumb Code   282  lv_hal_disp.o(.text)
    lv_disp_get_default                      0x0801be4d   Thumb Code     6  lv_hal_disp.o(.text)
    lv_disp_get_ver_res                      0x0801be53   Thumb Code    40  lv_hal_disp.o(.text)
    lv_disp_get_hor_res                      0x0801be7b   Thumb Code    40  lv_hal_disp.o(.text)
    lv_disp_drv_update                       0x0801bea3   Thumb Code    76  lv_hal_disp.o(.text)
    lv_disp_set_default                      0x0801beef   Thumb Code     6  lv_hal_disp.o(.text)
    lv_disp_remove                           0x0801bef5   Thumb Code    82  lv_hal_disp.o(.text)
    lv_disp_get_antialiasing                 0x0801bf47   Thumb Code    26  lv_hal_disp.o(.text)
    lv_disp_get_dpi                          0x0801bf61   Thumb Code    26  lv_hal_disp.o(.text)
    lv_disp_get_size_category                0x0801bf7b   Thumb Code    74  lv_hal_disp.o(.text)
    lv_disp_flush_ready                      0x0801bfc5   Thumb Code    12  lv_hal_disp.o(.text)
    lv_disp_flush_is_last                    0x0801bfd1   Thumb Code    16  lv_hal_disp.o(.text)
    lv_disp_get_next                         0x0801bfe1   Thumb Code    24  lv_hal_disp.o(.text)
    lv_disp_get_buf                          0x0801bff9   Thumb Code     6  lv_hal_disp.o(.text)
    lv_disp_get_inv_buf_size                 0x0801bfff   Thumb Code    12  lv_hal_disp.o(.text)
    _lv_disp_pop_from_inv_buf                0x0801c00b   Thumb Code    46  lv_hal_disp.o(.text)
    lv_indev_drv_init                        0x0801c059   Thumb Code    42  lv_hal_indev.o(.text)
    lv_indev_drv_register                    0x0801c083   Thumb Code   120  lv_hal_indev.o(.text)
    lv_indev_drv_update                      0x0801c0fb   Thumb Code    18  lv_hal_indev.o(.text)
    lv_indev_get_next                        0x0801c10d   Thumb Code    24  lv_hal_indev.o(.text)
    _lv_indev_read                           0x0801c125   Thumb Code    76  lv_hal_indev.o(.text)
    lv_tick_inc                              0x0801c189   Thumb Code    18  lv_hal_tick.o(.text)
    lv_tick_get                              0x0801c19b   Thumb Code    22  lv_hal_tick.o(.text)
    lv_tick_elaps                            0x0801c1b1   Thumb Code    26  lv_hal_tick.o(.text)
    lv_anim_path_linear                      0x0801c2b1   Thumb Code    48  lv_anim.o(.text)
    _lv_anim_core_init                       0x0801c3d5   Thumb Code    46  lv_anim.o(.text)
    lv_anim_init                             0x0801c403   Thumb Code    66  lv_anim.o(.text)
    lv_anim_del                              0x0801c445   Thumb Code    80  lv_anim.o(.text)
    lv_anim_start                            0x0801c495   Thumb Code   122  lv_anim.o(.text)
    lv_anim_get                              0x0801c50f   Thumb Code    50  lv_anim.o(.text)
    lv_anim_count_running                    0x0801c541   Thumb Code    36  lv_anim.o(.text)
    lv_anim_speed_to_time                    0x0801c565   Thumb Code    48  lv_anim.o(.text)
    lv_anim_refr_now                         0x0801c595   Thumb Code    10  lv_anim.o(.text)
    lv_anim_path_ease_in                     0x0801c59f   Thumb Code   116  lv_anim.o(.text)
    lv_anim_path_ease_out                    0x0801c613   Thumb Code    74  lv_anim.o(.text)
    lv_anim_path_ease_in_out                 0x0801c65d   Thumb Code    76  lv_anim.o(.text)
    lv_anim_path_overshoot                   0x0801c6a9   Thumb Code    76  lv_anim.o(.text)
    lv_anim_path_bounce                      0x0801c6f5   Thumb Code   236  lv_anim.o(.text)
    lv_anim_path_step                        0x0801c7e1   Thumb Code    22  lv_anim.o(.text)
    lv_area_set                              0x0801c7f7   Thumb Code    14  lv_area.o(.text)
    lv_area_set_width                        0x0801c805   Thumb Code    12  lv_area.o(.text)
    lv_area_set_height                       0x0801c811   Thumb Code    12  lv_area.o(.text)
    _lv_area_set_pos                         0x0801c81d   Thumb Code    50  lv_area.o(.text)
    lv_area_get_size                         0x0801c84f   Thumb Code    34  lv_area.o(.text)
    _lv_area_intersect                       0x0801c871   Thumb Code   130  lv_area.o(.text)
    _lv_area_join                            0x0801c8f3   Thumb Code   100  lv_area.o(.text)
    _lv_area_is_point_on                     0x0801c9a7   Thumb Code   402  lv_area.o(.text)
    _lv_area_is_on                           0x0801cb39   Thumb Code    58  lv_area.o(.text)
    _lv_area_is_in                           0x0801cb73   Thumb Code   182  lv_area.o(.text)
    _lv_area_align                           0x0801cc29   Thumb Code   868  lv_area.o(.text)
    lv_async_call                            0x0801cfbd   Thumb Code    68  lv_async.o(.text)
    lv_color_fill                            0x0801d0d3   Thumb Code    92  lv_color.o(.text)
    lv_color_lighten                         0x0801d12f   Thumb Code    34  lv_color.o(.text)
    lv_color_darken                          0x0801d151   Thumb Code    32  lv_color.o(.text)
    lv_color_hsv_to_rgb                      0x0801d171   Thumb Code   248  lv_color.o(.text)
    lv_color_rgb_to_hsv                      0x0801d269   Thumb Code   272  lv_color.o(.text)
    lv_color_to_hsv                          0x0801d379   Thumb Code   116  lv_color.o(.text)
    lv_debug_check_null                      0x0801d3f1   Thumb Code    12  lv_debug.o(.text)
    lv_debug_check_mem_integrity             0x0801d3fd   Thumb Code    16  lv_debug.o(.text)
    lv_debug_check_str                       0x0801d40d   Thumb Code    78  lv_debug.o(.text)
    lv_debug_log_error                       0x0801d45b   Thumb Code   120  lv_debug.o(.text)
    _lv_gc_clear_roots                       0x0801d4d9   Thumb Code   140  lv_gc.o(.text)
    _lv_ll_init                              0x0801d5a9   Thumb Code    16  lv_ll.o(.text)
    _lv_ll_ins_head                          0x0801d5ef   Thumb Code    64  lv_ll.o(.text)
    _lv_ll_get_prev                          0x0801d62f   Thumb Code    18  lv_ll.o(.text)
    _lv_ll_get_head                          0x0801d641   Thumb Code    10  lv_ll.o(.text)
    _lv_ll_ins_prev                          0x0801d64b   Thumb Code   116  lv_ll.o(.text)
    _lv_ll_ins_tail                          0x0801d6bf   Thumb Code    64  lv_ll.o(.text)
    _lv_ll_get_next                          0x0801d6ff   Thumb Code    20  lv_ll.o(.text)
    _lv_ll_get_tail                          0x0801d713   Thumb Code    10  lv_ll.o(.text)
    _lv_ll_remove                            0x0801d71d   Thumb Code   138  lv_ll.o(.text)
    _lv_ll_clear                             0x0801d7a7   Thumb Code    48  lv_ll.o(.text)
    _lv_ll_chg_list                          0x0801d7d7   Thumb Code   112  lv_ll.o(.text)
    _lv_ll_get_len                           0x0801d847   Thumb Code    36  lv_ll.o(.text)
    _lv_ll_move_before                       0x0801d86b   Thumb Code   106  lv_ll.o(.text)
    _lv_ll_is_empty                          0x0801d8d5   Thumb Code    24  lv_ll.o(.text)
    _lv_trigo_sin                            0x0801d8ed   Thumb Code   106  lv_math.o(.text)
    _lv_bezier3                              0x0801d957   Thumb Code    94  lv_math.o(.text)
    _lv_sqrt                                 0x0801d9b5   Thumb Code    40  lv_math.o(.text)
    _lv_atan2                                0x0801d9dd   Thumb Code   190  lv_math.o(.text)
    _lv_pow                                  0x0801da9b   Thumb Code    58  lv_math.o(.text)
    _lv_map                                  0x0801dad5   Thumb Code    40  lv_math.o(.text)
    _lv_mem_init                             0x0801db01   Thumb Code    38  lv_mem.o(.text)
    _lv_memset_00                            0x0801db27   Thumb Code   110  lv_mem.o(.text)
    _lv_mem_deinit                           0x0801db95   Thumb Code    40  lv_mem.o(.text)
    lv_mem_alloc                             0x0801dc5d   Thumb Code    90  lv_mem.o(.text)
    lv_mem_defrag                            0x0801dcb7   Thumb Code   110  lv_mem.o(.text)
    lv_mem_free                              0x0801dd25   Thumb Code   118  lv_mem.o(.text)
    _lv_memcpy                               0x0801dd9b   Thumb Code   656  lv_mem.o(.text)
    _lv_mem_get_size                         0x0801e02b   Thumb Code    26  lv_mem.o(.text)
    lv_mem_realloc                           0x0801e045   Thumb Code   118  lv_mem.o(.text)
    lv_mem_test                              0x0801e0bb   Thumb Code    70  lv_mem.o(.text)
    _lv_memset                               0x0801e101   Thumb Code   116  lv_mem.o(.text)
    lv_mem_monitor                           0x0801e175   Thumb Code   150  lv_mem.o(.text)
    _lv_mem_buf_get                          0x0801e20b   Thumb Code   292  lv_mem.o(.text)
    _lv_mem_buf_release                      0x0801e32f   Thumb Code    74  lv_mem.o(.text)
    _lv_mem_buf_free_all                     0x0801e379   Thumb Code    78  lv_mem.o(.text)
    _lv_memset_ff                            0x0801e3c7   Thumb Code   186  lv_mem.o(.text)
    lv_snprintf                              0x0801ed47   Thumb Code    42  lv_printf.o(.text)
    lv_vsnprintf                             0x0801ed71   Thumb Code    30  lv_printf.o(.text)
    lv_task_enable                           0x0801edb1   Thumb Code     6  lv_task.o(.text)
    _lv_task_core_init                       0x0801edb7   Thumb Code    24  lv_task.o(.text)
    lv_task_del                              0x0801edeb   Thumb Code    40  lv_task.o(.text)
    lv_task_handler                          0x0801ee5d   Thumb Code   448  lv_task.o(.text)
    lv_task_create_basic                     0x0801f01d   Thumb Code   214  lv_task.o(.text)
    lv_task_set_prio                         0x0801f0f3   Thumb Code    94  lv_task.o(.text)
    lv_task_set_period                       0x0801f151   Thumb Code     4  lv_task.o(.text)
    lv_task_set_cb                           0x0801f155   Thumb Code     4  lv_task.o(.text)
    lv_task_create                           0x0801f159   Thumb Code   148  lv_task.o(.text)
    lv_task_ready                            0x0801f1ed   Thumb Code    18  lv_task.o(.text)
    lv_task_set_repeat_count                 0x0801f1ff   Thumb Code     4  lv_task.o(.text)
    lv_task_reset                            0x0801f203   Thumb Code    12  lv_task.o(.text)
    lv_task_get_idle                         0x0801f20f   Thumb Code     6  lv_task.o(.text)
    lv_task_get_next                         0x0801f215   Thumb Code    24  lv_task.o(.text)
    _lv_txt_is_cmd                           0x0801f24d   Thumb Code    66  lv_txt.o(.text)
    _lv_txt_get_width                        0x0801f28f   Thumb Code   140  lv_txt.o(.text)
    _lv_txt_get_next_line                    0x0801f461   Thumb Code   240  lv_txt.o(.text)
    _lv_txt_get_size                         0x0801f551   Thumb Code   240  lv_txt.o(.text)
    _lv_txt_ins                              0x0801f641   Thumb Code    80  lv_txt.o(.text)
    _lv_txt_cut                              0x0801f691   Thumb Code    66  lv_txt.o(.text)
    _lv_utils_num_to_str                     0x0801fa25   Thumb Code   128  lv_utils.o(.text)
    _lv_utils_bsearch                        0x0801faa5   Thumb Code    84  lv_utils.o(.text)
    lv_theme_set_act                         0x0801faf9   Thumb Code     6  lv_theme.o(.text)
    lv_theme_get_act                         0x0801faff   Thumb Code     6  lv_theme.o(.text)
    lv_theme_apply                           0x0801fe95   Thumb Code    28  lv_theme.o(.text)
    lv_theme_copy                            0x0801feb1   Thumb Code    64  lv_theme.o(.text)
    lv_theme_set_base                        0x0801fef1   Thumb Code     4  lv_theme.o(.text)
    lv_theme_set_apply_cb                    0x0801fef5   Thumb Code     4  lv_theme.o(.text)
    lv_theme_get_font_small                  0x0801fef9   Thumb Code     8  lv_theme.o(.text)
    lv_theme_get_font_normal                 0x0801ff01   Thumb Code     8  lv_theme.o(.text)
    lv_theme_get_font_subtitle               0x0801ff09   Thumb Code     8  lv_theme.o(.text)
    lv_theme_get_font_title                  0x0801ff11   Thumb Code     8  lv_theme.o(.text)
    lv_theme_get_color_primary               0x0801ff19   Thumb Code    18  lv_theme.o(.text)
    lv_theme_get_color_secondary             0x0801ff2b   Thumb Code    18  lv_theme.o(.text)
    lv_theme_get_flags                       0x0801ff3d   Thumb Code     8  lv_theme.o(.text)
    lv_theme_material_init                   0x08025173   Thumb Code   222  lv_theme_material.o(.text)
    lv_bar_set_value                         0x080256ed   Thumb Code   124  lv_bar.o(.text)
    lv_bar_create                            0x08025e47   Thumb Code   318  lv_bar.o(.text)
    lv_bar_set_start_value                   0x08025f85   Thumb Code   126  lv_bar.o(.text)
    lv_bar_get_type                          0x08026003   Thumb Code    50  lv_bar.o(.text)
    lv_bar_set_range                         0x08026035   Thumb Code   178  lv_bar.o(.text)
    lv_bar_set_type                          0x080260e7   Thumb Code    70  lv_bar.o(.text)
    lv_bar_set_anim_time                     0x0802612d   Thumb Code    48  lv_bar.o(.text)
    lv_bar_get_value                         0x0802615d   Thumb Code    60  lv_bar.o(.text)
    lv_bar_get_start_value                   0x08026199   Thumb Code    78  lv_bar.o(.text)
    lv_bar_get_min_value                     0x080261e7   Thumb Code    46  lv_bar.o(.text)
    lv_bar_get_max_value                     0x08026215   Thumb Code    46  lv_bar.o(.text)
    lv_bar_get_anim_time                     0x08026243   Thumb Code    46  lv_bar.o(.text)
    lv_btn_set_state                         0x080262e7   Thumb Code   150  lv_btn.o(.text)
    lv_btn_get_checkable                     0x0802637d   Thumb Code    46  lv_btn.o(.text)
    lv_btn_create                            0x080264a7   Thumb Code   234  lv_btn.o(.text)
    lv_btn_set_checkable                     0x08026591   Thumb Code    44  lv_btn.o(.text)
    lv_btn_toggle                            0x080265bd   Thumb Code    64  lv_btn.o(.text)
    lv_btn_get_state                         0x080265fd   Thumb Code    94  lv_btn.o(.text)
    lv_btnmatrix_set_map                     0x080267db   Thumb Code   726  lv_btnmatrix.o(.text)
    lv_btnmatrix_set_ctrl_map                0x08026ab1   Thumb Code   100  lv_btnmatrix.o(.text)
    lv_btnmatrix_get_align                   0x08026b2d   Thumb Code    56  lv_btnmatrix.o(.text)
    lv_btnmatrix_set_btn_ctrl                0x08027013   Thumb Code    82  lv_btnmatrix.o(.text)
    lv_btnmatrix_clear_btn_ctrl              0x08027065   Thumb Code    82  lv_btnmatrix.o(.text)
    lv_btnmatrix_clear_btn_ctrl_all          0x080270b7   Thumb Code    72  lv_btnmatrix.o(.text)
    lv_btnmatrix_get_btn_ctrl                0x080270ff   Thumb Code    76  lv_btnmatrix.o(.text)
    lv_btnmatrix_create                      0x080279a1   Thumb Code   282  lv_btnmatrix.o(.text)
    lv_btnmatrix_set_focused_btn             0x08027abb   Thumb Code    78  lv_btnmatrix.o(.text)
    lv_btnmatrix_set_recolor                 0x08027b09   Thumb Code    56  lv_btnmatrix.o(.text)
    lv_btnmatrix_set_btn_ctrl_all            0x08027b41   Thumb Code    70  lv_btnmatrix.o(.text)
    lv_btnmatrix_set_btn_width               0x08027b87   Thumb Code   100  lv_btnmatrix.o(.text)
    lv_btnmatrix_set_one_check               0x08027beb   Thumb Code    58  lv_btnmatrix.o(.text)
    lv_btnmatrix_set_align                   0x08027c25   Thumb Code    70  lv_btnmatrix.o(.text)
    lv_btnmatrix_get_map_array               0x08027c6b   Thumb Code    42  lv_btnmatrix.o(.text)
    lv_btnmatrix_get_recolor                 0x08027c95   Thumb Code    46  lv_btnmatrix.o(.text)
    lv_btnmatrix_get_active_btn              0x08027cc3   Thumb Code    42  lv_btnmatrix.o(.text)
    lv_btnmatrix_get_btn_text                0x08027ced   Thumb Code   108  lv_btnmatrix.o(.text)
    lv_btnmatrix_get_active_btn_text         0x08027d59   Thumb Code    62  lv_btnmatrix.o(.text)
    lv_btnmatrix_get_focused_btn             0x08027d97   Thumb Code    72  lv_btnmatrix.o(.text)
    lv_btnmatrix_get_one_check               0x08027ddf   Thumb Code    46  lv_btnmatrix.o(.text)
    lv_checkbox_set_text                     0x08027e89   Thumb Code    50  lv_checkbox.o(.text)
    lv_checkbox_create                       0x0802804b   Thumb Code   264  lv_checkbox.o(.text)
    lv_checkbox_set_text_static              0x08028153   Thumb Code    50  lv_checkbox.o(.text)
    lv_checkbox_get_text                     0x08028185   Thumb Code    46  lv_checkbox.o(.text)
    lv_cont_get_layout                       0x080286cf   Thumb Code    46  lv_cont.o(.text)
    lv_cont_create                           0x08028e33   Thumb Code   284  lv_cont.o(.text)
    lv_cont_set_layout                       0x08028f4f   Thumb Code    76  lv_cont.o(.text)
    lv_cont_set_fit4                         0x08028f9b   Thumb Code   146  lv_cont.o(.text)
    lv_cont_get_fit_left                     0x0802902d   Thumb Code    48  lv_cont.o(.text)
    lv_cont_get_fit_right                    0x0802905d   Thumb Code    46  lv_cont.o(.text)
    lv_cont_get_fit_top                      0x0802908b   Thumb Code    48  lv_cont.o(.text)
    lv_cont_get_fit_bottom                   0x080290bb   Thumb Code    48  lv_cont.o(.text)
    lv_dropdown_get_options                  0x080291b5   Thumb Code    42  lv_dropdown.o(.text)
    lv_dropdown_set_options_static           0x080291df   Thumb Code   152  lv_dropdown.o(.text)
    lv_dropdown_set_options                  0x08029277   Thumb Code   210  lv_dropdown.o(.text)
    lv_dropdown_get_selected_str             0x08029349   Thumb Code   140  lv_dropdown.o(.text)
    lv_dropdown_close                        0x0802961f   Thumb Code    38  lv_dropdown.o(.text)
    lv_dropdown_open                         0x08029d0b   Thumb Code   806  lv_dropdown.o(.text)
    lv_dropdown_create                       0x0802a2d9   Thumb Code   580  lv_dropdown.o(.text)
    lv_dropdown_set_text                     0x0802a51d   Thumb Code    62  lv_dropdown.o(.text)
    lv_dropdown_clear_options                0x0802a55b   Thumb Code    92  lv_dropdown.o(.text)
    lv_dropdown_add_option                   0x0802a5b7   Thumb Code   436  lv_dropdown.o(.text)
    lv_dropdown_set_selected                 0x0802a76b   Thumb Code    82  lv_dropdown.o(.text)
    lv_dropdown_set_dir                      0x0802a7bd   Thumb Code    76  lv_dropdown.o(.text)
    lv_dropdown_set_max_height               0x0802a809   Thumb Code   108  lv_dropdown.o(.text)
    lv_dropdown_set_symbol                   0x0802a875   Thumb Code    50  lv_dropdown.o(.text)
    lv_dropdown_set_show_selected            0x0802a8a7   Thumb Code    76  lv_dropdown.o(.text)
    lv_dropdown_get_text                     0x0802a8f3   Thumb Code    42  lv_dropdown.o(.text)
    lv_dropdown_get_selected                 0x0802a91d   Thumb Code    42  lv_dropdown.o(.text)
    lv_dropdown_get_option_cnt               0x0802a947   Thumb Code    42  lv_dropdown.o(.text)
    lv_dropdown_get_max_height               0x0802a971   Thumb Code    44  lv_dropdown.o(.text)
    lv_dropdown_get_symbol                   0x0802a99d   Thumb Code    54  lv_dropdown.o(.text)
    lv_dropdown_get_dir                      0x0802a9d3   Thumb Code    48  lv_dropdown.o(.text)
    lv_dropdown_get_show_selected            0x0802aa03   Thumb Code    48  lv_dropdown.o(.text)
    lv_img_get_auto_size                     0x0802aac9   Thumb Code    46  lv_img.o(.text)
    lv_img_set_src                           0x0802aaf7   Thumb Code   468  lv_img.o(.text)
    lv_img_create                            0x0802b651   Thumb Code   362  lv_img.o(.text)
    lv_img_set_auto_size                     0x0802b7bb   Thumb Code    52  lv_img.o(.text)
    lv_img_set_offset_x                      0x0802b7ef   Thumb Code    64  lv_img.o(.text)
    lv_img_set_offset_y                      0x0802b82f   Thumb Code    64  lv_img.o(.text)
    lv_img_set_pivot                         0x0802b86f   Thumb Code   284  lv_img.o(.text)
    lv_img_set_angle                         0x0802b98b   Thumb Code   284  lv_img.o(.text)
    lv_img_set_zoom                          0x0802baa7   Thumb Code   270  lv_img.o(.text)
    lv_img_set_antialias                     0x0802bbb5   Thumb Code    38  lv_img.o(.text)
    lv_img_get_src                           0x0802bbdb   Thumb Code    44  lv_img.o(.text)
    lv_img_get_file_name                     0x0802bc07   Thumb Code    60  lv_img.o(.text)
    lv_img_get_offset_x                      0x0802bc43   Thumb Code    46  lv_img.o(.text)
    lv_img_get_offset_y                      0x0802bc71   Thumb Code    46  lv_img.o(.text)
    lv_img_get_pivot                         0x0802bc9f   Thumb Code    50  lv_img.o(.text)
    lv_img_get_angle                         0x0802bcd1   Thumb Code    44  lv_img.o(.text)
    lv_img_get_zoom                          0x0802bcfd   Thumb Code    44  lv_img.o(.text)
    lv_img_get_antialias                     0x0802bd29   Thumb Code    48  lv_img.o(.text)
    lv_keyboard_set_textarea                 0x0802bdf9   Thumb Code   116  lv_keyboard.o(.text)
    lv_keyboard_def_event_cb                 0x0802be6d   Thumb Code   582  lv_keyboard.o(.text)
    lv_keyboard_create                       0x0802c131   Thumb Code   448  lv_keyboard.o(.text)
    lv_keyboard_set_mode                     0x0802c2f1   Thumb Code    84  lv_keyboard.o(.text)
    lv_keyboard_set_cursor_manage            0x0802c345   Thumb Code    96  lv_keyboard.o(.text)
    lv_keyboard_set_map                      0x0802c3d3   Thumb Code    22  lv_keyboard.o(.text)
    lv_keyboard_set_ctrl_map                 0x0802c3e9   Thumb Code    22  lv_keyboard.o(.text)
    lv_keyboard_get_textarea                 0x0802c3ff   Thumb Code    44  lv_keyboard.o(.text)
    lv_keyboard_get_mode                     0x0802c42b   Thumb Code    46  lv_keyboard.o(.text)
    lv_keyboard_get_cursor_manage            0x0802c459   Thumb Code    50  lv_keyboard.o(.text)
    lv_label_get_text                        0x0802c511   Thumb Code    42  lv_label.o(.text)
    lv_label_get_align                       0x0802c53b   Thumb Code    54  lv_label.o(.text)
    lv_label_get_letter_on                   0x0802c5cf   Thumb Code   578  lv_label.o(.text)
    lv_label_set_text_static                 0x0802cddd   Thumb Code    86  lv_label.o(.text)
    lv_label_set_text                        0x0802ce33   Thumb Code   256  lv_label.o(.text)
    lv_label_set_align                       0x0802cf33   Thumb Code    72  lv_label.o(.text)
    lv_label_get_recolor                     0x0802cf7b   Thumb Code    48  lv_label.o(.text)
    lv_label_set_recolor                     0x0802cfab   Thumb Code    72  lv_label.o(.text)
    lv_label_get_long_mode                   0x0802cff3   Thumb Code    48  lv_label.o(.text)
    lv_label_set_long_mode                   0x0802d0b3   Thumb Code   156  lv_label.o(.text)
    lv_label_get_style                       0x0802d14f   Thumb Code    18  lv_label.o(.text)
    lv_label_get_text_sel_end                0x0802d25b   Thumb Code    38  lv_label.o(.text)
    lv_label_get_text_sel_start              0x0802d281   Thumb Code    92  lv_label.o(.text)
    lv_label_create                          0x0802d557   Thumb Code   490  lv_label.o(.text)
    lv_label_set_text_fmt                    0x0802d741   Thumb Code   230  lv_label.o(.text)
    lv_label_set_anim_speed                  0x0802d827   Thumb Code    82  lv_label.o(.text)
    lv_label_set_text_sel_start              0x0802d879   Thumb Code    36  lv_label.o(.text)
    lv_label_set_text_sel_end                0x0802d89d   Thumb Code    36  lv_label.o(.text)
    lv_label_get_anim_speed                  0x0802d8c1   Thumb Code    44  lv_label.o(.text)
    lv_label_get_letter_pos                  0x0802d8ed   Thumb Code   570  lv_label.o(.text)
    lv_label_is_char_under_pos               0x0802db27   Thumb Code   550  lv_label.o(.text)
    lv_label_ins_text                        0x0802dd4d   Thumb Code   212  lv_label.o(.text)
    lv_label_cut_text                        0x0802de21   Thumb Code    90  lv_label.o(.text)
    lv_list_get_next_btn                     0x0802df83   Thumb Code    92  lv_list.o(.text)
    lv_list_get_btn_label                    0x0802e01d   Thumb Code    78  lv_list.o(.text)
    lv_list_get_btn_text                     0x0802e06b   Thumb Code    52  lv_list.o(.text)
    lv_list_focus_btn                        0x0802e09f   Thumb Code   110  lv_list.o(.text)
    lv_list_get_btn_selected                 0x0802e10d   Thumb Code    42  lv_list.o(.text)
    lv_list_get_layout                       0x0802e289   Thumb Code    46  lv_list.o(.text)
    lv_list_get_prev_btn                     0x0802e2b7   Thumb Code    92  lv_list.o(.text)
    lv_list_add_btn                          0x0802e313   Thumb Code   550  lv_list.o(.text)
    lv_list_get_btn_img                      0x0802e577   Thumb Code    80  lv_list.o(.text)
    lv_list_create                           0x0802e931   Thumb Code   278  lv_list.o(.text)
    lv_list_clean                            0x0802ea47   Thumb Code    48  lv_list.o(.text)
    lv_list_remove                           0x0802ea77   Thumb Code    88  lv_list.o(.text)
    lv_list_set_layout                       0x0802eacf   Thumb Code   200  lv_list.o(.text)
    lv_list_get_btn_index                    0x0802eb97   Thumb Code   124  lv_list.o(.text)
    lv_list_get_size                         0x0802ec13   Thumb Code    68  lv_list.o(.text)
    lv_list_up                               0x0802ec57   Thumb Code   204  lv_list.o(.text)
    lv_list_down                             0x0802ed23   Thumb Code   204  lv_list.o(.text)
    lv_list_focus                            0x0802edef   Thumb Code    78  lv_list.o(.text)
    lv_msgbox_get_anim_time                  0x0802eee5   Thumb Code    42  lv_msgbox.o(.text)
    lv_msgbox_start_auto_close               0x0802ef1b   Thumb Code   250  lv_msgbox.o(.text)
    lv_msgbox_get_active_btn                 0x0802f015   Thumb Code    76  lv_msgbox.o(.text)
    lv_msgbox_create                         0x0802f3cb   Thumb Code   456  lv_msgbox.o(.text)
    lv_msgbox_add_btns                       0x0802f5d9   Thumb Code   182  lv_msgbox.o(.text)
    lv_msgbox_set_text                       0x0802f68f   Thumb Code    86  lv_msgbox.o(.text)
    lv_msgbox_set_anim_time                  0x0802f6e5   Thumb Code    48  lv_msgbox.o(.text)
    lv_msgbox_stop_auto_close                0x0802f715   Thumb Code    42  lv_msgbox.o(.text)
    lv_msgbox_set_recolor                    0x0802f73f   Thumb Code    56  lv_msgbox.o(.text)
    lv_msgbox_get_text                       0x0802f777   Thumb Code    48  lv_msgbox.o(.text)
    lv_msgbox_get_active_btn_text            0x0802f7a7   Thumb Code    98  lv_msgbox.o(.text)
    lv_msgbox_get_recolor                    0x0802f809   Thumb Code    56  lv_msgbox.o(.text)
    lv_msgbox_get_btnmatrix                  0x0802f841   Thumb Code    44  lv_msgbox.o(.text)
    lv_page_get_scrollable                   0x0802f8d3   Thumb Code    42  lv_page.o(.text)
    lv_page_set_scrollbar_mode               0x0802fd07   Thumb Code   178  lv_page.o(.text)
    lv_page_get_anim_time                    0x0803008f   Thumb Code    44  lv_page.o(.text)
    lv_page_scroll_hor                       0x080300bb   Thumb Code    96  lv_page.o(.text)
    lv_page_scroll_ver                       0x0803011b   Thumb Code    96  lv_page.o(.text)
    lv_page_start_edge_flash                 0x08030659   Thumb Code   238  lv_page.o(.text)
    lv_page_on_edge                          0x080308b7   Thumb Code   178  lv_page.o(.text)
    lv_page_create                           0x08030e35   Thumb Code   464  lv_page.o(.text)
    lv_page_clean                            0x08031005   Thumb Code    46  lv_page.o(.text)
    lv_page_set_anim_time                    0x08031033   Thumb Code    44  lv_page.o(.text)
    lv_page_set_scroll_propagation           0x0803105f   Thumb Code    66  lv_page.o(.text)
    lv_page_set_edge_flash                   0x080310a1   Thumb Code    54  lv_page.o(.text)
    lv_page_get_scrollbar_mode               0x080310d7   Thumb Code    48  lv_page.o(.text)
    lv_page_get_scroll_propagation           0x08031107   Thumb Code    48  lv_page.o(.text)
    lv_page_get_edge_flash                   0x08031137   Thumb Code    48  lv_page.o(.text)
    lv_page_get_width_fit                    0x08031167   Thumb Code   104  lv_page.o(.text)
    lv_page_get_height_fit                   0x080311cf   Thumb Code   150  lv_page.o(.text)
    lv_page_get_width_grid                   0x08031265   Thumb Code    58  lv_page.o(.text)
    lv_page_get_height_grid                  0x0803129f   Thumb Code    58  lv_page.o(.text)
    lv_page_glue_obj                         0x080312d9   Thumb Code    24  lv_page.o(.text)
    lv_page_focus                            0x080312f1   Thumb Code   588  lv_page.o(.text)
    lv_roller_get_auto_fit                   0x080317ed   Thumb Code    48  lv_roller.o(.text)
    lv_roller_set_selected                   0x08031927   Thumb Code   126  lv_roller.o(.text)
    lv_roller_set_visible_row_count          0x08031c73   Thumb Code    94  lv_roller.o(.text)
    lv_roller_set_options                    0x08031cd1   Thumb Code   308  lv_roller.o(.text)
    lv_roller_get_align                      0x08031f37   Thumb Code    46  lv_roller.o(.text)
    lv_roller_create                         0x0803258b   Thumb Code   458  lv_roller.o(.text)
    lv_roller_set_align                      0x08032755   Thumb Code    64  lv_roller.o(.text)
    lv_roller_set_auto_fit                   0x08032795   Thumb Code   160  lv_roller.o(.text)
    lv_roller_get_selected                   0x08032835   Thumb Code    84  lv_roller.o(.text)
    lv_roller_get_selected_str               0x08032889   Thumb Code   160  lv_roller.o(.text)
    lv_roller_get_option_cnt                 0x08032929   Thumb Code    70  lv_roller.o(.text)
    lv_roller_get_options                    0x0803296f   Thumb Code    46  lv_roller.o(.text)
    lv_slider_get_value                      0x08032c8b   Thumb Code    38  lv_slider.o(.text)
    lv_slider_create                         0x08033383   Thumb Code   276  lv_slider.o(.text)
    lv_slider_is_dragged                     0x08033497   Thumb Code    50  lv_slider.o(.text)
    lv_spinbox_set_rollover                  0x080336b1   Thumb Code    54  lv_spinbox.o(.text)
    lv_spinbox_set_step                      0x080336e7   Thumb Code    52  lv_spinbox.o(.text)
    lv_spinbox_set_range                     0x0803371b   Thumb Code   116  lv_spinbox.o(.text)
    lv_spinbox_set_digit_format              0x0803378f   Thumb Code   194  lv_spinbox.o(.text)
    lv_spinbox_set_value                     0x08033851   Thumb Code    82  lv_spinbox.o(.text)
    lv_spinbox_decrement                     0x080338a3   Thumb Code   146  lv_spinbox.o(.text)
    lv_spinbox_increment                     0x08033935   Thumb Code   144  lv_spinbox.o(.text)
    lv_spinbox_step_prev                     0x080339c5   Thumb Code   120  lv_spinbox.o(.text)
    lv_spinbox_step_next                     0x08033a3d   Thumb Code    72  lv_spinbox.o(.text)
    lv_spinbox_create                        0x08033cfd   Thumb Code   344  lv_spinbox.o(.text)
    lv_spinbox_set_padding_left              0x08033e55   Thumb Code    62  lv_spinbox.o(.text)
    lv_spinbox_get_rollover                  0x08033e93   Thumb Code    50  lv_spinbox.o(.text)
    lv_spinbox_get_value                     0x08033ec5   Thumb Code    92  lv_spinbox.o(.text)
    lv_switch_off                            0x0803407d   Thumb Code    66  lv_switch.o(.text)
    lv_switch_on                             0x080340bf   Thumb Code    66  lv_switch.o(.text)
    lv_switch_create                         0x080342fb   Thumb Code   406  lv_switch.o(.text)
    lv_switch_toggle                         0x08034491   Thumb Code    68  lv_switch.o(.text)
    lv_tabview_get_anim_time                 0x08034545   Thumb Code    42  lv_tabview.o(.text)
    lv_tabview_set_tab_act                   0x0803456f   Thumb Code   618  lv_tabview.o(.text)
    lv_tabview_get_tab                       0x08034bab   Thumb Code   116  lv_tabview.o(.text)
    lv_tabview_add_tab                       0x08034c1f   Thumb Code   562  lv_tabview.o(.text)
    lv_tabview_get_tab_act                   0x08034e51   Thumb Code    44  lv_tabview.o(.text)
    lv_tabview_create                        0x0803534b   Thumb Code   778  lv_tabview.o(.text)
    lv_tabview_clean_tab                     0x08035655   Thumb Code    48  lv_tabview.o(.text)
    lv_tabview_set_tab_name                  0x08035685   Thumb Code   130  lv_tabview.o(.text)
    lv_tabview_set_anim_time                 0x08035707   Thumb Code    46  lv_tabview.o(.text)
    lv_tabview_set_btns_pos                  0x08035735   Thumb Code    98  lv_tabview.o(.text)
    lv_tabview_get_tab_count                 0x08035797   Thumb Code    44  lv_tabview.o(.text)
    lv_tabview_get_btns_pos                  0x080357c3   Thumb Code    48  lv_tabview.o(.text)
    lv_textarea_get_cursor_pos               0x08035945   Thumb Code    42  lv_textarea.o(.text)
    lv_textarea_get_label                    0x08035b8f   Thumb Code    42  lv_textarea.o(.text)
    lv_textarea_set_text_align               0x08035bb9   Thumb Code   152  lv_textarea.o(.text)
    lv_textarea_set_one_line                 0x08035c51   Thumb Code   302  lv_textarea.o(.text)
    lv_textarea_set_placeholder_text         0x08035d7f   Thumb Code   176  lv_textarea.o(.text)
    lv_textarea_set_cursor_pos               0x080360df   Thumb Code   522  lv_textarea.o(.text)
    lv_textarea_clear_selection              0x080364bf   Thumb Code    34  lv_textarea.o(.text)
    lv_textarea_get_text                     0x080364e1   Thumb Code    66  lv_textarea.o(.text)
    lv_textarea_get_max_length               0x08036589   Thumb Code    44  lv_textarea.o(.text)
    lv_textarea_get_accepted_chars           0x080365b5   Thumb Code    44  lv_textarea.o(.text)
    lv_textarea_add_text                     0x080365e1   Thumb Code   476  lv_textarea.o(.text)
    lv_textarea_add_char                     0x08036803   Thumb Code   394  lv_textarea.o(.text)
    lv_textarea_del_char                     0x0803698d   Thumb Code   306  lv_textarea.o(.text)
    lv_textarea_del_char_forward             0x08036abf   Thumb Code    66  lv_textarea.o(.text)
    lv_textarea_cursor_down                  0x08036b01   Thumb Code   194  lv_textarea.o(.text)
    lv_textarea_cursor_up                    0x08036bc3   Thumb Code   142  lv_textarea.o(.text)
    lv_textarea_cursor_left                  0x08036c51   Thumb Code    54  lv_textarea.o(.text)
    lv_textarea_cursor_right                 0x08036c87   Thumb Code    52  lv_textarea.o(.text)
    lv_textarea_create                       0x08036f33   Thumb Code   820  lv_textarea.o(.text)
    lv_textarea_set_text                     0x08037267   Thumb Code   422  lv_textarea.o(.text)
    lv_textarea_set_cursor_hidden            0x0803740d   Thumb Code    60  lv_textarea.o(.text)
    lv_textarea_set_cursor_click_pos         0x08037449   Thumb Code    54  lv_textarea.o(.text)
    lv_textarea_set_pwd_mode                 0x0803747f   Thumb Code   208  lv_textarea.o(.text)
    lv_textarea_set_accepted_chars           0x0803754f   Thumb Code    44  lv_textarea.o(.text)
    lv_textarea_set_max_length               0x0803757b   Thumb Code    44  lv_textarea.o(.text)
    lv_textarea_set_insert_replace           0x080375a7   Thumb Code    38  lv_textarea.o(.text)
    lv_textarea_set_text_sel                 0x080375cd   Thumb Code    76  lv_textarea.o(.text)
    lv_textarea_set_pwd_show_time            0x08037619   Thumb Code    46  lv_textarea.o(.text)
    lv_textarea_set_cursor_blink_time        0x08037647   Thumb Code   160  lv_textarea.o(.text)
    lv_textarea_get_placeholder_text         0x080376e7   Thumb Code    52  lv_textarea.o(.text)
    lv_textarea_get_cursor_hidden            0x0803771b   Thumb Code    48  lv_textarea.o(.text)
    lv_textarea_get_cursor_click_pos         0x0803774b   Thumb Code    48  lv_textarea.o(.text)
    lv_textarea_get_pwd_mode                 0x0803777b   Thumb Code    48  lv_textarea.o(.text)
    lv_textarea_get_one_line                 0x080377ab   Thumb Code    48  lv_textarea.o(.text)
    lv_textarea_text_is_selected             0x080377db   Thumb Code    34  lv_textarea.o(.text)
    lv_textarea_get_text_sel_en              0x080377fd   Thumb Code    34  lv_textarea.o(.text)
    lv_textarea_get_pwd_show_time            0x0803781f   Thumb Code    44  lv_textarea.o(.text)
    lv_textarea_get_cursor_blink_time        0x0803784b   Thumb Code    44  lv_textarea.o(.text)
    lv_port_disp_init                        0x080379c5   Thumb Code    64  lv_port_disp.o(.text)
    lv_port_indev_init                       0x08037a65   Thumb Code    30  lv_port_indev.o(.text)
    lv_demo_keypad_encoder                   0x080380c1   Thumb Code   160  lv_demo_keypad_encoder.o(.text)
    __use_no_semihosting                     0x080381cd   Thumb Code     2  use_no_semi_2.o(.text)
    __aeabi_uldivmod                         0x080381cf   Thumb Code     0  lludivv7m.o(.text)
    _ll_udiv                                 0x080381cf   Thumb Code   238  lludivv7m.o(.text)
    __2printf                                0x080382bd   Thumb Code    20  noretval__2printf.o(.text)
    __printf                                 0x080382d5   Thumb Code   104  __printf.o(.text)
    _printf_str                              0x0803833d   Thumb Code    82  _printf_str.o(.text)
    _printf_int_dec                          0x08038391   Thumb Code   104  _printf_dec.o(.text)
    _printf_int_hex                          0x08038409   Thumb Code    84  _printf_hex_int.o(.text)
    _printf_longlong_hex                     0x08038409   Thumb Code     0  _printf_hex_int.o(.text)
    memcmp                                   0x08038461   Thumb Code    88  memcmp.o(.text)
    strcpy                                   0x080384b9   Thumb Code    72  strcpy.o(.text)
    strlen                                   0x08038501   Thumb Code    62  strlen.o(.text)
    strcat                                   0x0803853f   Thumb Code    24  strcat.o(.text)
    __aeabi_memcpy4                          0x08038557   Thumb Code     0  rt_memcpy_w.o(.text)
    __aeabi_memcpy8                          0x08038557   Thumb Code     0  rt_memcpy_w.o(.text)
    __rt_memcpy_w                            0x08038557   Thumb Code   100  rt_memcpy_w.o(.text)
    _memcpy_lastbytes_aligned                0x0803859f   Thumb Code     0  rt_memcpy_w.o(.text)
    strcmp                                   0x080385bd   Thumb Code   128  strcmpv7m.o(.text)
    __use_two_region_memory                  0x0803863d   Thumb Code     2  heapauxi.o(.text)
    __rt_heap_escrow$2region                 0x0803863f   Thumb Code     2  heapauxi.o(.text)
    __rt_heap_expand$2region                 0x08038641   Thumb Code     2  heapauxi.o(.text)
    __I$use$semihosting                      0x08038643   Thumb Code     0  use_no_semi.o(.text)
    __use_no_semihosting_swi                 0x08038643   Thumb Code     2  use_no_semi.o(.text)
    __read_errno                             0x08038645   Thumb Code    10  _rserrno.o(.text)
    __set_errno                              0x0803864f   Thumb Code    12  _rserrno.o(.text)
    _printf_int_common                       0x0803865b   Thumb Code   178  _printf_intcommon.o(.text)
    _printf_cs_common                        0x0803870d   Thumb Code    20  _printf_char.o(.text)
    _printf_char                             0x08038721   Thumb Code    16  _printf_char.o(.text)
    _printf_string                           0x08038731   Thumb Code     8  _printf_char.o(.text)
    _printf_char_file                        0x08038739   Thumb Code    32  _printf_char_file.o(.text)
    __aeabi_errno_addr                       0x0803875d   Thumb Code     8  rt_errno_addr_intlibspace.o(.text)
    __errno$intlibspace                      0x0803875d   Thumb Code     0  rt_errno_addr_intlibspace.o(.text)
    __rt_errno_addr$intlibspace              0x0803875d   Thumb Code     0  rt_errno_addr_intlibspace.o(.text)
    _printf_char_common                      0x0803876f   Thumb Code    32  _printf_char_common.o(.text)
    ferror                                   0x08038795   Thumb Code     8  ferror.o(.text)
    __user_libspace                          0x0803879d   Thumb Code     8  libspace.o(.text)
    __user_perproc_libspace                  0x0803879d   Thumb Code     0  libspace.o(.text)
    __user_perthread_libspace                0x0803879d   Thumb Code     0  libspace.o(.text)
    __user_setup_stackheap                   0x080387a5   Thumb Code    74  sys_stackheap_outer.o(.text)
    exit                                     0x080387ef   Thumb Code    18  exit.o(.text)
    __hardfp_sqrt                            0x08038801   Thumb Code   122  sqrt.o(i.__hardfp_sqrt)
    __aeabi_dadd                             0x0803887d   Thumb Code     0  daddsub_clz.o(x$fpl$dadd)
    _dadd                                    0x0803887d   Thumb Code   332  daddsub_clz.o(x$fpl$dadd)
    __fpl_dcmp_Inf                           0x080389cd   Thumb Code    24  dcmpi.o(x$fpl$dcmpinf)
    __aeabi_d2uiz                            0x080389e5   Thumb Code     0  dfixu.o(x$fpl$dfixu)
    _dfixu                                   0x080389e5   Thumb Code    90  dfixu.o(x$fpl$dfixu)
    __aeabi_i2d                              0x08038a3f   Thumb Code     0  dflt_clz.o(x$fpl$dflt)
    _dflt                                    0x08038a3f   Thumb Code    46  dflt_clz.o(x$fpl$dflt)
    __aeabi_ui2d                             0x08038a6d   Thumb Code     0  dflt_clz.o(x$fpl$dfltu)
    _dfltu                                   0x08038a6d   Thumb Code    38  dflt_clz.o(x$fpl$dfltu)
    __aeabi_cdcmple                          0x08038a95   Thumb Code     0  dleqf.o(x$fpl$dleqf)
    _dcmple                                  0x08038a95   Thumb Code   120  dleqf.o(x$fpl$dleqf)
    __fpl_dcmple_InfNaN                      0x08038af7   Thumb Code     0  dleqf.o(x$fpl$dleqf)
    __aeabi_dmul                             0x08038b0d   Thumb Code     0  dmul.o(x$fpl$dmul)
    _dmul                                    0x08038b0d   Thumb Code   332  dmul.o(x$fpl$dmul)
    __fpl_dnaninf                            0x08038c61   Thumb Code   156  dnaninf.o(x$fpl$dnaninf)
    __fpl_dretinf                            0x08038cfd   Thumb Code    12  dretinf.o(x$fpl$dretinf)
    __aeabi_cdrcmple                         0x08038d09   Thumb Code     0  drleqf.o(x$fpl$drleqf)
    _drcmple                                 0x08038d09   Thumb Code   108  drleqf.o(x$fpl$drleqf)
    __aeabi_drsub                            0x08038d75   Thumb Code     0  daddsub_clz.o(x$fpl$drsb)
    _drsb                                    0x08038d75   Thumb Code    22  daddsub_clz.o(x$fpl$drsb)
    _dsqrt                                   0x08038d8d   Thumb Code   404  dsqrt_umaal.o(x$fpl$dsqrt)
    __aeabi_dsub                             0x08038f25   Thumb Code     0  daddsub_clz.o(x$fpl$dsub)
    _dsub                                    0x08038f25   Thumb Code   464  daddsub_clz.o(x$fpl$dsub)
    __aeabi_f2d                              0x080390f9   Thumb Code     0  f2d.o(x$fpl$f2d)
    _f2d                                     0x080390f9   Thumb Code    86  f2d.o(x$fpl$f2d)
    __fpl_fnaninf                            0x0803914f   Thumb Code   140  fnaninf.o(x$fpl$fnaninf)
    _fp_init                                 0x080391db   Thumb Code    10  fpinit.o(x$fpl$fpinit)
    __fplib_config_fpu_vfp                   0x080391e3   Thumb Code     0  fpinit.o(x$fpl$fpinit)
    __fplib_config_pureend_doubles           0x080391e3   Thumb Code     0  fpinit.o(x$fpl$fpinit)
    __I$use$fp                               0x080391e4   Number         0  usenofp.o(x$fpl$usenofp)
    asc2_1206                                0x080391e4   Data        1140  lcd.o(.constdata)
    asc2_1608                                0x08039658   Data        1520  lcd.o(.constdata)
    asc2_2412                                0x08039c48   Data        3420  lcd.o(.constdata)
    GT9147_CFG_TBL                           0x0803a9a4   Data         184  gt9147.o(.constdata)
    GT9147_TPX_TBL                           0x0803aa5c   Data          10  gt9147.o(.constdata)
    OTT_TPX_TBL                              0x0803aa66   Data          10  ott2001a.o(.constdata)
    FT5206_TPX_TBL                           0x0803aa70   Data          10  ft5206.o(.constdata)
    TP_REMIND_MSG_TBL                        0x0803aa7c   Data           4  touch.o(.constdata)
    FSMC_DefaultTimingStruct                 0x0803aa80   Data          28  stm32f4xx_fsmc.o(.constdata)
    _lv_bpp1_opa_table                       0x0803aaac   Data           2  lv_draw_label.o(.constdata)
    _lv_bpp2_opa_table                       0x0803aaae   Data           4  lv_draw_label.o(.constdata)
    _lv_bpp3_opa_table                       0x0803aab2   Data           8  lv_draw_label.o(.constdata)
    _lv_bpp4_opa_table                       0x0803aaba   Data          16  lv_draw_label.o(.constdata)
    _lv_bpp8_opa_table                       0x0803aaca   Data         256  lv_draw_label.o(.constdata)
    lv_anim_path_def                         0x0803e004   Data           8  lv_anim.o(.constdata)
    Region$$Table$$Base                      0x0803e760   Number         0  anon$$obj.o(Region$$Table)
    Region$$Table$$Limit                     0x0803e780   Number         0  anon$$obj.o(Region$$Table)
    SystemCoreClock                          0x20000000   Data           4  system_stm32f4xx.o(.data)
    AHBPrescTable                            0x20000004   Data          16  system_stm32f4xx.o(.data)
    POINT_COLOR                              0x20000014   Data           2  lcd.o(.data)
    BACK_COLOR                               0x20000016   Data           2  lcd.o(.data)
    tp_dev                                   0x2000001c   Data          52  touch.o(.data)
    CMD_RDX                                  0x20000050   Data           1  touch.o(.data)
    CMD_RDY                                  0x20000051   Data           1  touch.o(.data)
    __stdout                                 0x20000058   Data           4  usart.o(.data)
    USART_RX_STA                             0x2000005c   Data           2  usart.o(.data)
    lv_font_montserrat_14                    0x200000c8   Data          20  lv_font_montserrat_14.o(.data)
    _lv_img_cache_array                      0x200000f4   Data           4  lv_gc.o(.data)
    _lv_task_act                             0x200000f8   Data           4  lv_gc.o(.data)
    _lv_theme_material_styles                0x200000fc   Data           4  lv_gc.o(.data)
    _lv_theme_template_styles                0x20000100   Data           4  lv_gc.o(.data)
    _lv_theme_mono_styles                    0x20000104   Data           4  lv_gc.o(.data)
    _lv_theme_empty_styles                   0x20000108   Data           4  lv_gc.o(.data)
    _lv_txt_encoded_size                     0x20000144   Data           4  lv_txt.o(.data)
    _lv_txt_unicode_to_encoded               0x20000148   Data           4  lv_txt.o(.data)
    _lv_txt_encoded_conv_wc                  0x2000014c   Data           4  lv_txt.o(.data)
    _lv_txt_encoded_next                     0x20000150   Data           4  lv_txt.o(.data)
    _lv_txt_encoded_prev                     0x20000154   Data           4  lv_txt.o(.data)
    _lv_txt_encoded_get_byte_id              0x20000158   Data           4  lv_txt.o(.data)
    _lv_txt_encoded_get_char_id              0x2000015c   Data           4  lv_txt.o(.data)
    _lv_txt_get_encoded_length               0x20000160   Data           4  lv_txt.o(.data)
    indev_touchpad                           0x20000254   Data           4  lv_port_indev.o(.data)
    lcddev                                   0x2000027c   Data          14  lcd.o(.bss)
    USART_RX_BUF                             0x2000028a   Data         200  usart.o(.bss)
    _lv_task_ll                              0x20000454   Data          12  lv_gc.o(.bss)
    _lv_disp_ll                              0x20000460   Data          12  lv_gc.o(.bss)
    _lv_indev_ll                             0x2000046c   Data          12  lv_gc.o(.bss)
    _lv_drv_ll                               0x20000478   Data          12  lv_gc.o(.bss)
    _lv_file_ll                              0x20000484   Data          12  lv_gc.o(.bss)
    _lv_anim_ll                              0x20000490   Data          12  lv_gc.o(.bss)
    _lv_group_ll                             0x2000049c   Data          12  lv_gc.o(.bss)
    _lv_img_defoder_ll                       0x200004a8   Data          12  lv_gc.o(.bss)
    _lv_obj_style_trans_ll                   0x200004b4   Data          12  lv_gc.o(.bss)
    _lv_mem_buf                              0x200004c0   Data         128  lv_gc.o(.bss)
    _lv_draw_mask_list                       0x20000540   Data         128  lv_gc.o(.bss)
    selector_objs                            0x20005e2c   Data          32  lv_demo_keypad_encoder.o(.bss)
    textinput_objs                           0x20005e4c   Data          12  lv_demo_keypad_encoder.o(.bss)
    __libspace_start                         0x20005e58   Data          96  libspace.o(.bss)
    __temporary_stack_top$libspace           0x20005eb8   Data           0  libspace.o(.bss)



==============================================================================

Memory Map of the image

  Image Entry point : 0x08000189

  Load Region LR_IROM1 (Base: 0x08000000, Size: 0x0003e9fc, Max: 0x00100000, ABSOLUTE, COMPRESSED[0x0003e83c])

    Execution Region ER_IROM1 (Exec base: 0x08000000, Load base: 0x08000000, Size: 0x0003e780, Max: 0x00100000, ABSOLUTE)

    Exec Addr    Load Addr    Size         Type   Attr      Idx    E Section Name        Object

    0x08000000   0x08000000   0x00000188   Data   RO         1138    RESET               startup_stm32f40_41xxx.o
    0x08000188   0x08000188   0x00000008   Code   RO         8501  * !!!main             c_w.l(__main.o)
    0x08000190   0x08000190   0x00000034   Code   RO         8741    !!!scatter          c_w.l(__scatter.o)
    0x080001c4   0x080001c4   0x0000005a   Code   RO         8739    !!dczerorl2         c_w.l(__dczerorl2.o)
    0x0800021e   0x0800021e   0x00000002   PAD
    0x08000220   0x08000220   0x0000001c   Code   RO         8743    !!handler_zi        c_w.l(__scatter_zi.o)
    0x0800023c   0x0800023c   0x00000000   Code   RO         8482    .ARM.Collect$$_printf_percent$$00000000  c_w.l(_printf_percent.o)
    0x0800023c   0x0800023c   0x00000006   Code   RO         8481    .ARM.Collect$$_printf_percent$$00000009  c_w.l(_printf_d.o)
    0x08000242   0x08000242   0x00000006   Code   RO         8480    .ARM.Collect$$_printf_percent$$0000000C  c_w.l(_printf_x.o)
    0x08000248   0x08000248   0x00000006   Code   RO         8479    .ARM.Collect$$_printf_percent$$00000014  c_w.l(_printf_s.o)
    0x0800024e   0x0800024e   0x00000004   Code   RO         8554    .ARM.Collect$$_printf_percent$$00000017  c_w.l(_printf_percent_end.o)
    0x08000252   0x08000252   0x00000002   Code   RO         8616    .ARM.Collect$$libinit$$00000000  c_w.l(libinit.o)
    0x08000254   0x08000254   0x00000004   Code   RO         8625    .ARM.Collect$$libinit$$00000001  c_w.l(libinit2.o)
    0x08000258   0x08000258   0x00000000   Code   RO         8628    .ARM.Collect$$libinit$$00000004  c_w.l(libinit2.o)
    0x08000258   0x08000258   0x00000000   Code   RO         8631    .ARM.Collect$$libinit$$0000000A  c_w.l(libinit2.o)
    0x08000258   0x08000258   0x00000000   Code   RO         8633    .ARM.Collect$$libinit$$0000000C  c_w.l(libinit2.o)
    0x08000258   0x08000258   0x00000000   Code   RO         8635    .ARM.Collect$$libinit$$0000000E  c_w.l(libinit2.o)
    0x08000258   0x08000258   0x00000000   Code   RO         8638    .ARM.Collect$$libinit$$00000011  c_w.l(libinit2.o)
    0x08000258   0x08000258   0x00000000   Code   RO         8640    .ARM.Collect$$libinit$$00000013  c_w.l(libinit2.o)
    0x08000258   0x08000258   0x00000000   Code   RO         8642    .ARM.Collect$$libinit$$00000015  c_w.l(libinit2.o)
    0x08000258   0x08000258   0x00000000   Code   RO         8644    .ARM.Collect$$libinit$$00000017  c_w.l(libinit2.o)
    0x08000258   0x08000258   0x00000000   Code   RO         8646    .ARM.Collect$$libinit$$00000019  c_w.l(libinit2.o)
    0x08000258   0x08000258   0x00000000   Code   RO         8648    .ARM.Collect$$libinit$$0000001B  c_w.l(libinit2.o)
    0x08000258   0x08000258   0x00000000   Code   RO         8650    .ARM.Collect$$libinit$$0000001D  c_w.l(libinit2.o)
    0x08000258   0x08000258   0x00000000   Code   RO         8652    .ARM.Collect$$libinit$$0000001F  c_w.l(libinit2.o)
    0x08000258   0x08000258   0x00000000   Code   RO         8654    .ARM.Collect$$libinit$$00000021  c_w.l(libinit2.o)
    0x08000258   0x08000258   0x00000000   Code   RO         8656    .ARM.Collect$$libinit$$00000023  c_w.l(libinit2.o)
    0x08000258   0x08000258   0x00000000   Code   RO         8658    .ARM.Collect$$libinit$$00000025  c_w.l(libinit2.o)
    0x08000258   0x08000258   0x00000000   Code   RO         8662    .ARM.Collect$$libinit$$0000002C  c_w.l(libinit2.o)
    0x08000258   0x08000258   0x00000000   Code   RO         8664    .ARM.Collect$$libinit$$0000002E  c_w.l(libinit2.o)
    0x08000258   0x08000258   0x00000000   Code   RO         8666    .ARM.Collect$$libinit$$00000030  c_w.l(libinit2.o)
    0x08000258   0x08000258   0x00000000   Code   RO         8668    .ARM.Collect$$libinit$$00000032  c_w.l(libinit2.o)
    0x08000258   0x08000258   0x00000002   Code   RO         8669    .ARM.Collect$$libinit$$00000033  c_w.l(libinit2.o)
    0x0800025a   0x0800025a   0x00000002   Code   RO         8695    .ARM.Collect$$libshutdown$$00000000  c_w.l(libshutdown.o)
    0x0800025c   0x0800025c   0x00000000   Code   RO         8722    .ARM.Collect$$libshutdown$$00000002  c_w.l(libshutdown2.o)
    0x0800025c   0x0800025c   0x00000000   Code   RO         8724    .ARM.Collect$$libshutdown$$00000004  c_w.l(libshutdown2.o)
    0x0800025c   0x0800025c   0x00000000   Code   RO         8727    .ARM.Collect$$libshutdown$$00000007  c_w.l(libshutdown2.o)
    0x0800025c   0x0800025c   0x00000000   Code   RO         8730    .ARM.Collect$$libshutdown$$0000000A  c_w.l(libshutdown2.o)
    0x0800025c   0x0800025c   0x00000000   Code   RO         8732    .ARM.Collect$$libshutdown$$0000000C  c_w.l(libshutdown2.o)
    0x0800025c   0x0800025c   0x00000000   Code   RO         8735    .ARM.Collect$$libshutdown$$0000000F  c_w.l(libshutdown2.o)
    0x0800025c   0x0800025c   0x00000002   Code   RO         8736    .ARM.Collect$$libshutdown$$00000010  c_w.l(libshutdown2.o)
    0x0800025e   0x0800025e   0x00000000   Code   RO         8541    .ARM.Collect$$rtentry$$00000000  c_w.l(__rtentry.o)
    0x0800025e   0x0800025e   0x00000000   Code   RO         8569    .ARM.Collect$$rtentry$$00000002  c_w.l(__rtentry2.o)
    0x0800025e   0x0800025e   0x00000006   Code   RO         8581    .ARM.Collect$$rtentry$$00000004  c_w.l(__rtentry4.o)
    0x08000264   0x08000264   0x00000000   Code   RO         8571    .ARM.Collect$$rtentry$$00000009  c_w.l(__rtentry2.o)
    0x08000264   0x08000264   0x00000004   Code   RO         8572    .ARM.Collect$$rtentry$$0000000A  c_w.l(__rtentry2.o)
    0x08000268   0x08000268   0x00000000   Code   RO         8574    .ARM.Collect$$rtentry$$0000000C  c_w.l(__rtentry2.o)
    0x08000268   0x08000268   0x00000008   Code   RO         8575    .ARM.Collect$$rtentry$$0000000D  c_w.l(__rtentry2.o)
    0x08000270   0x08000270   0x00000002   Code   RO         8617    .ARM.Collect$$rtexit$$00000000  c_w.l(rtexit.o)
    0x08000272   0x08000272   0x00000000   Code   RO         8671    .ARM.Collect$$rtexit$$00000002  c_w.l(rtexit2.o)
    0x08000272   0x08000272   0x00000004   Code   RO         8672    .ARM.Collect$$rtexit$$00000003  c_w.l(rtexit2.o)
    0x08000276   0x08000276   0x00000006   Code   RO         8673    .ARM.Collect$$rtexit$$00000004  c_w.l(rtexit2.o)
    0x0800027c   0x0800027c   0x0000005c   Code   RO            3    .text               main.o
    0x080002d8   0x080002d8   0x0000001a   Code   RO          484    .text               stm32f4xx_it.o
    0x080002f2   0x080002f2   0x00000002   PAD
    0x080002f4   0x080002f4   0x00000210   Code   RO          533    .text               system_stm32f4xx.o
    0x08000504   0x08000504   0x00000040   Code   RO          559    .text               led.o
    0x08000544   0x08000544   0x00004c80   Code   RO          579    .text               lcd.o
    0x080051c4   0x080051c4   0x00000104   Code   RO          617    .text               key.o
    0x080052c8   0x080052c8   0x0000025c   Code   RO          638    .text               myiic.o
    0x08005524   0x08005524   0x0000017a   Code   RO          661    .text               24cxx.o
    0x0800569e   0x0800569e   0x00000002   PAD
    0x080056a0   0x080056a0   0x00000254   Code   RO          684    .text               ctiic.o
    0x080058f4   0x080058f4   0x00000430   Code   RO          707    .text               gt9147.o
    0x08005d24   0x08005d24   0x00000388   Code   RO          735    .text               ott2001a.o
    0x080060ac   0x080060ac   0x0000032c   Code   RO          759    .text               ft5206.o
    0x080063d8   0x080063d8   0x000010e0   Code   RO          783    .text               touch.o
    0x080074b8   0x080074b8   0x0000007c   Code   RO          815    .text               timer.o
    0x08007534   0x08007534   0x000002f8   Code   RO         1047    .text               sram.o
    0x0800782c   0x0800782c   0x00000104   Code   RO         1067    .text               delay.o
    0x08007930   0x08007930   0x00000148   Code   RO         1107    .text               usart.o
    0x08007a78   0x08007a78   0x00000040   Code   RO         1139    .text               startup_stm32f40_41xxx.o
    0x08007ab8   0x08007ab8   0x000000e0   Code   RO         1145    .text               misc.o
    0x08007b98   0x08007b98   0x00000294   Code   RO         1165    .text               stm32f4xx_gpio.o
    0x08007e2c   0x08007e2c   0x000005c8   Code   RO         1185    .text               stm32f4xx_fsmc.o
    0x080083f4   0x080083f4   0x0000065c   Code   RO         1208    .text               stm32f4xx_rcc.o
    0x08008a50   0x08008a50   0x00000454   Code   RO         1250    .text               stm32f4xx_usart.o
    0x08008ea4   0x08008ea4   0x00000ca2   Code   RO         1270    .text               stm32f4xx_tim.o
    0x08009b46   0x08009b46   0x00000002   PAD
    0x08009b48   0x08009b48   0x00000538   Code   RO         1288    .text               lv_disp.o
    0x0800a080   0x0800a080   0x000005b0   Code   RO         1413    .text               lv_group.o
    0x0800a630   0x0800a630   0x00001a68   Code   RO         1526    .text               lv_indev.o
    0x0800c098   0x0800c098   0x00004dcc   Code   RO         1564    .text               lv_obj.o
    0x08010e64   0x08010e64   0x00000aa8   Code   RO         1661    .text               lv_refr.o
    0x0801190c   0x0801190c   0x00000dc4   Code   RO         1716    .text               lv_style.o
    0x080126d0   0x080126d0   0x00001088   Code   RO         1822    .text               lv_draw_blend.o
    0x08013758   0x08013758   0x00000b84   Code   RO         1932    .text               lv_draw_img.o
    0x080142dc   0x080142dc   0x00000f44   Code   RO         2012    .text               lv_draw_label.o
    0x08015220   0x08015220   0x00000b8a   Code   RO         2093    .text               lv_draw_line.o
    0x08015daa   0x08015daa   0x00000002   PAD
    0x08015dac   0x08015dac   0x00001614   Code   RO         2174    .text               lv_draw_mask.o
    0x080173c0   0x080173c0   0x000025d0   Code   RO         2234    .text               lv_draw_rect.o
    0x08019990   0x08019990   0x00000fa8   Code   RO         2307    .text               lv_img_buf.o
    0x0801a938   0x0801a938   0x0000027c   Code   RO         2337    .text               lv_img_cache.o
    0x0801abb4   0x0801abb4   0x00000890   Code   RO         2376    .text               lv_img_decoder.o
    0x0801b444   0x0801b444   0x00000050   Code   RO         2413    .text               lv_font.o
    0x0801b494   0x0801b494   0x000007f4   Code   RO         2717    .text               lv_font_fmt_txt.o
    0x0801bc88   0x0801bc88   0x000003d0   Code   RO         3077    .text               lv_hal_disp.o
    0x0801c058   0x0801c058   0x00000130   Code   RO         3218    .text               lv_hal_indev.o
    0x0801c188   0x0801c188   0x0000004c   Code   RO         3331    .text               lv_hal_tick.o
    0x0801c1d4   0x0801c1d4   0x00000622   Code   RO         3351    .text               lv_anim.o
    0x0801c7f6   0x0801c7f6   0x000007b2   Code   RO         3439    .text               lv_area.o
    0x0801cfa8   0x0801cfa8   0x0000005c   Code   RO         3458    .text               lv_async.o
    0x0801d004   0x0801d004   0x000003ec   Code   RO         3500    .text               lv_color.o
    0x0801d3f0   0x0801d3f0   0x000000e8   Code   RO         3516    .text               lv_debug.o
    0x0801d4d8   0x0801d4d8   0x000000d0   Code   RO         3541    .text               lv_gc.o
    0x0801d5a8   0x0801d5a8   0x00000344   Code   RO         3576    .text               lv_ll.o
    0x0801d8ec   0x0801d8ec   0x00000214   Code   RO         3594    .text               lv_math.o
    0x0801db00   0x0801db00   0x00000980   Code   RO         3611    .text               lv_mem.o
    0x0801e480   0x0801e480   0x00000930   Code   RO         3627    .text               lv_printf.o
    0x0801edb0   0x0801edb0   0x00000484   Code   RO         3642    .text               lv_task.o
    0x0801f234   0x0801f234   0x000007f0   Code   RO         3665    .text               lv_txt.o
    0x0801fa24   0x0801fa24   0x000000d4   Code   RO         3744    .text               lv_utils.o
    0x0801faf8   0x0801faf8   0x00000450   Code   RO         3759    .text               lv_theme.o
    0x0801ff48   0x0801ff48   0x000056b8   Code   RO         4052    .text               lv_theme_material.o
    0x08025600   0x08025600   0x00000ca6   Code   RO         4509    .text               lv_bar.o
    0x080262a6   0x080262a6   0x00000002   PAD
    0x080262a8   0x080262a8   0x000003ec   Code   RO         4599    .text               lv_btn.o
    0x08026694   0x08026694   0x000017f4   Code   RO         4640    .text               lv_btnmatrix.o
    0x08027e88   0x08027e88   0x0000036c   Code   RO         4832    .text               lv_checkbox.o
    0x080281f4   0x080281f4   0x00000fbe   Code   RO         4867    .text               lv_cont.o
    0x080291b2   0x080291b2   0x00000002   PAD
    0x080291b4   0x080291b4   0x00001914   Code   RO         4960    .text               lv_dropdown.o
    0x0802aac8   0x0802aac8   0x00001330   Code   RO         5149    .text               lv_img.o
    0x0802bdf8   0x0802bdf8   0x0000069c   Code   RO         5305    .text               lv_keyboard.o
    0x0802c494   0x0802c494   0x00001ab0   Code   RO         5336    .text               lv_label.o
    0x0802df44   0x0802df44   0x00000fa0   Code   RO         5539    .text               lv_list.o
    0x0802eee4   0x0802eee4   0x000009ca   Code   RO         5590    .text               lv_msgbox.o
    0x0802f8ae   0x0802f8ae   0x00000002   PAD
    0x0802f8b0   0x0802f8b0   0x00001d44   Code   RO         5685    .text               lv_page.o
    0x080315f4   0x080315f4   0x000013d8   Code   RO         5766    .text               lv_roller.o
    0x080329cc   0x080329cc   0x00000b78   Code   RO         5792    .text               lv_slider.o
    0x08033544   0x08033544   0x000009dc   Code   RO         5818    .text               lv_spinbox.o
    0x08033f20   0x08033f20   0x00000624   Code   RO         5895    .text               lv_switch.o
    0x08034544   0x08034544   0x00001338   Code   RO         5983    .text               lv_tabview.o
    0x0803587c   0x0803587c   0x00002120   Code   RO         6043    .text               lv_textarea.o
    0x0803799c   0x0803799c   0x0000007c   Code   RO         6190    .text               lv_port_disp.o
    0x08037a18   0x08037a18   0x0000007c   Code   RO         6473    .text               lv_port_indev.o
    0x08037a94   0x08037a94   0x00000738   Code   RO         8114    .text               lv_demo_keypad_encoder.o
    0x080381cc   0x080381cc   0x00000002   Code   RO         8424    .text               c_w.l(use_no_semi_2.o)
    0x080381ce   0x080381ce   0x000000ee   Code   RO         8426    .text               c_w.l(lludivv7m.o)
    0x080382bc   0x080382bc   0x00000018   Code   RO         8430    .text               c_w.l(noretval__2printf.o)
    0x080382d4   0x080382d4   0x00000068   Code   RO         8432    .text               c_w.l(__printf.o)
    0x0803833c   0x0803833c   0x00000052   Code   RO         8434    .text               c_w.l(_printf_str.o)
    0x0803838e   0x0803838e   0x00000002   PAD
    0x08038390   0x08038390   0x00000078   Code   RO         8436    .text               c_w.l(_printf_dec.o)
    0x08038408   0x08038408   0x00000058   Code   RO         8441    .text               c_w.l(_printf_hex_int.o)
    0x08038460   0x08038460   0x00000058   Code   RO         8483    .text               c_w.l(memcmp.o)
    0x080384b8   0x080384b8   0x00000048   Code   RO         8485    .text               c_w.l(strcpy.o)
    0x08038500   0x08038500   0x0000003e   Code   RO         8487    .text               c_w.l(strlen.o)
    0x0803853e   0x0803853e   0x00000018   Code   RO         8489    .text               c_w.l(strcat.o)
    0x08038556   0x08038556   0x00000064   Code   RO         8493    .text               c_w.l(rt_memcpy_w.o)
    0x080385ba   0x080385ba   0x00000002   PAD
    0x080385bc   0x080385bc   0x00000080   Code   RO         8497    .text               c_w.l(strcmpv7m.o)
    0x0803863c   0x0803863c   0x00000006   Code   RO         8499    .text               c_w.l(heapauxi.o)
    0x08038642   0x08038642   0x00000002   Code   RO         8539    .text               c_w.l(use_no_semi.o)
    0x08038644   0x08038644   0x00000016   Code   RO         8546    .text               c_w.l(_rserrno.o)
    0x0803865a   0x0803865a   0x000000b2   Code   RO         8548    .text               c_w.l(_printf_intcommon.o)
    0x0803870c   0x0803870c   0x0000002c   Code   RO         8550    .text               c_w.l(_printf_char.o)
    0x08038738   0x08038738   0x00000024   Code   RO         8552    .text               c_w.l(_printf_char_file.o)
    0x0803875c   0x0803875c   0x00000008   Code   RO         8588    .text               c_w.l(rt_errno_addr_intlibspace.o)
    0x08038764   0x08038764   0x00000030   Code   RO         8590    .text               c_w.l(_printf_char_common.o)
    0x08038794   0x08038794   0x00000008   Code   RO         8592    .text               c_w.l(ferror.o)
    0x0803879c   0x0803879c   0x00000008   Code   RO         8598    .text               c_w.l(libspace.o)
    0x080387a4   0x080387a4   0x0000004a   Code   RO         8601    .text               c_w.l(sys_stackheap_outer.o)
    0x080387ee   0x080387ee   0x00000012   Code   RO         8605    .text               c_w.l(exit.o)
    0x08038800   0x08038800   0x0000007a   Code   RO         8527    i.__hardfp_sqrt     m_wm.l(sqrt.o)
    0x0803887a   0x0803887a   0x00000002   PAD
    0x0803887c   0x0803887c   0x00000150   Code   RO         8503    x$fpl$dadd          fz_wm.l(daddsub_clz.o)
    0x080389cc   0x080389cc   0x00000018   Code   RO         8557    x$fpl$dcmpinf       fz_wm.l(dcmpi.o)
    0x080389e4   0x080389e4   0x0000005a   Code   RO         8509    x$fpl$dfixu         fz_wm.l(dfixu.o)
    0x08038a3e   0x08038a3e   0x0000002e   Code   RO         8514    x$fpl$dflt          fz_wm.l(dflt_clz.o)
    0x08038a6c   0x08038a6c   0x00000026   Code   RO         8513    x$fpl$dfltu         fz_wm.l(dflt_clz.o)
    0x08038a92   0x08038a92   0x00000002   PAD
    0x08038a94   0x08038a94   0x00000078   Code   RO         8519    x$fpl$dleqf         fz_wm.l(dleqf.o)
    0x08038b0c   0x08038b0c   0x00000154   Code   RO         8521    x$fpl$dmul          fz_wm.l(dmul.o)
    0x08038c60   0x08038c60   0x0000009c   Code   RO         8559    x$fpl$dnaninf       fz_wm.l(dnaninf.o)
    0x08038cfc   0x08038cfc   0x0000000c   Code   RO         8561    x$fpl$dretinf       fz_wm.l(dretinf.o)
    0x08038d08   0x08038d08   0x0000006c   Code   RO         8523    x$fpl$drleqf        fz_wm.l(drleqf.o)
    0x08038d74   0x08038d74   0x00000016   Code   RO         8504    x$fpl$drsb          fz_wm.l(daddsub_clz.o)
    0x08038d8a   0x08038d8a   0x00000002   PAD
    0x08038d8c   0x08038d8c   0x00000198   Code   RO         8563    x$fpl$dsqrt         fz_wm.l(dsqrt_umaal.o)
    0x08038f24   0x08038f24   0x000001d4   Code   RO         8505    x$fpl$dsub          fz_wm.l(daddsub_clz.o)
    0x080390f8   0x080390f8   0x00000056   Code   RO         8525    x$fpl$f2d           fz_wm.l(f2d.o)
    0x0803914e   0x0803914e   0x0000008c   Code   RO         8565    x$fpl$fnaninf       fz_wm.l(fnaninf.o)
    0x080391da   0x080391da   0x0000000a   Code   RO         8683    x$fpl$fpinit        fz_wm.l(fpinit.o)
    0x080391e4   0x080391e4   0x00000000   Code   RO         8567    x$fpl$usenofp       fz_wm.l(usenofp.o)
    0x080391e4   0x080391e4   0x000017c0   Data   RO          581    .constdata          lcd.o
    0x0803a9a4   0x0803a9a4   0x000000c2   Data   RO          708    .constdata          gt9147.o
    0x0803aa66   0x0803aa66   0x0000000a   Data   RO          736    .constdata          ott2001a.o
    0x0803aa70   0x0803aa70   0x0000000a   Data   RO          760    .constdata          ft5206.o
    0x0803aa7a   0x0803aa7a   0x00000002   PAD
    0x0803aa7c   0x0803aa7c   0x00000004   Data   RO          784    .constdata          touch.o
    0x0803aa80   0x0803aa80   0x0000001c   Data   RO         1186    .constdata          stm32f4xx_fsmc.o
    0x0803aa9c   0x0803aa9c   0x00000002   Data   RO         1565    .constdata          lv_obj.o
    0x0803aa9e   0x0803aa9e   0x00000002   PAD
    0x0803aaa0   0x0803aaa0   0x0000000a   Data   RO         1933    .constdata          lv_draw_img.o
    0x0803aaaa   0x0803aaaa   0x00000002   PAD
    0x0803aaac   0x0803aaac   0x00000122   Data   RO         2014    .constdata          lv_draw_label.o
    0x0803abce   0x0803abce   0x00000021   Data   RO         2094    .constdata          lv_draw_line.o
    0x0803abef   0x0803abef   0x00000001   PAD
    0x0803abf0   0x0803abf0   0x00000002   Data   RO         2235    .constdata          lv_draw_rect.o
    0x0803abf2   0x0803abf2   0x00000002   PAD
    0x0803abf4   0x0803abf4   0x00003408   Data   RO         2818    .constdata          lv_font_montserrat_14.o
    0x0803dffc   0x0803dffc   0x00000006   Data   RO         3078    .constdata          lv_hal_disp.o
    0x0803e002   0x0803e002   0x00000002   PAD
    0x0803e004   0x0803e004   0x00000008   Data   RO         3352    .constdata          lv_anim.o
    0x0803e00c   0x0803e00c   0x00000002   Data   RO         3501    .constdata          lv_color.o
    0x0803e00e   0x0803e00e   0x00000011   Data   RO         3517    .constdata          lv_debug.o
    0x0803e01f   0x0803e01f   0x00000001   PAD
    0x0803e020   0x0803e020   0x000000b6   Data   RO         3595    .constdata          lv_math.o
    0x0803e0d6   0x0803e0d6   0x00000002   PAD
    0x0803e0d8   0x0803e0d8   0x00000046   Data   RO         4054    .constdata          lv_theme_material.o
    0x0803e11e   0x0803e11e   0x00000002   PAD
    0x0803e120   0x0803e120   0x00000376   Data   RO         5306    .constdata          lv_keyboard.o
    0x0803e496   0x0803e496   0x00000002   PAD
    0x0803e498   0x0803e498   0x00000002   Data   RO         8116    .constdata          lv_demo_keypad_encoder.o
    0x0803e49a   0x0803e49a   0x00000028   Data   RO         8442    .constdata          c_w.l(_printf_hex_int.o)
    0x0803e4c2   0x0803e4c2   0x00000002   PAD
    0x0803e4c4   0x0803e4c4   0x00000079   Data   RO          785    .conststring        touch.o
    0x0803e53d   0x0803e53d   0x00000003   PAD
    0x0803e540   0x0803e540   0x00000051   Data   RO         3613    .conststring        lv_mem.o
    0x0803e591   0x0803e591   0x00000003   PAD
    0x0803e594   0x0803e594   0x0000002d   Data   RO         4641    .conststring        lv_btnmatrix.o
    0x0803e5c1   0x0803e5c1   0x00000003   PAD
    0x0803e5c4   0x0803e5c4   0x00000190   Data   RO         5307    .conststring        lv_keyboard.o
    0x0803e754   0x0803e754   0x0000000b   Data   RO         8117    .conststring        lv_demo_keypad_encoder.o
    0x0803e75f   0x0803e75f   0x00000001   PAD
    0x0803e760   0x0803e760   0x00000020   Data   RO         8737    Region$$Table       anon$$obj.o


    Execution Region RW_IRAM1 (Exec base: 0x20000000, Load base: 0x0803e780, Size: 0x000068b8, Max: 0x00020000, ABSOLUTE, COMPRESSED[0x000000bc])

    Exec Addr    Load Addr    Size         Type   Attr      Idx    E Section Name        Object

    0x20000000   COMPRESSED   0x00000014   Data   RW          534    .data               system_stm32f4xx.o
    0x20000014   COMPRESSED   0x00000004   Data   RW          582    .data               lcd.o
    0x20000018   COMPRESSED   0x00000001   Data   RW          618    .data               key.o
    0x20000019   COMPRESSED   0x00000001   Data   RW          709    .data               gt9147.o
    0x2000001a   COMPRESSED   0x00000001   Data   RW          737    .data               ott2001a.o
    0x2000001b   COMPRESSED   0x00000001   Data   RW          761    .data               ft5206.o
    0x2000001c   COMPRESSED   0x00000036   Data   RW          786    .data               touch.o
    0x20000052   COMPRESSED   0x00000004   Data   RW         1068    .data               delay.o
    0x20000056   COMPRESSED   0x00000002   PAD
    0x20000058   COMPRESSED   0x00000006   Data   RW         1109    .data               usart.o
    0x2000005e   COMPRESSED   0x00000010   Data   RW         1209    .data               stm32f4xx_rcc.o
    0x2000006e   COMPRESSED   0x00000002   PAD
    0x20000070   COMPRESSED   0x00000008   Data   RW         1527    .data               lv_indev.o
    0x20000078   COMPRESSED   0x0000000c   Data   RW         1566    .data               lv_obj.o
    0x20000084   COMPRESSED   0x00000008   Data   RW         1662    .data               lv_refr.o
    0x2000008c   COMPRESSED   0x00000008   Data   RW         2015    .data               lv_draw_label.o
    0x20000094   COMPRESSED   0x00000002   Data   RW         2338    .data               lv_img_cache.o
    0x20000096   COMPRESSED   0x00000002   PAD
    0x20000098   COMPRESSED   0x00000010   Data   RW         2718    .data               lv_font_fmt_txt.o
    0x200000a8   COMPRESSED   0x00000034   Data   RW         2819    .data               lv_font_montserrat_14.o
    0x200000dc   COMPRESSED   0x00000004   Data   RW         3079    .data               lv_hal_disp.o
    0x200000e0   COMPRESSED   0x00000005   Data   RW         3332    .data               lv_hal_tick.o
    0x200000e5   COMPRESSED   0x00000003   PAD
    0x200000e8   COMPRESSED   0x0000000c   Data   RW         3353    .data               lv_anim.o
    0x200000f4   COMPRESSED   0x00000018   Data   RW         3543    .data               lv_gc.o
    0x2000010c   COMPRESSED   0x0000001e   Data   RW         3614    .data               lv_mem.o
    0x2000012a   COMPRESSED   0x00000002   PAD
    0x2000012c   COMPRESSED   0x00000018   Data   RW         3643    .data               lv_task.o
    0x20000144   COMPRESSED   0x00000020   Data   RW         3666    .data               lv_txt.o
    0x20000164   COMPRESSED   0x00000004   Data   RW         3760    .data               lv_theme.o
    0x20000168   COMPRESSED   0x00000005   Data   RW         4055    .data               lv_theme_material.o
    0x2000016d   COMPRESSED   0x00000003   PAD
    0x20000170   COMPRESSED   0x00000008   Data   RW         4510    .data               lv_bar.o
    0x20000178   COMPRESSED   0x00000008   Data   RW         4600    .data               lv_btn.o
    0x20000180   COMPRESSED   0x00000024   Data   RW         4642    .data               lv_btnmatrix.o
    0x200001a4   COMPRESSED   0x00000004   Data   RW         4833    .data               lv_checkbox.o
    0x200001a8   COMPRESSED   0x00000008   Data   RW         4868    .data               lv_cont.o
    0x200001b0   COMPRESSED   0x00000014   Data   RW         4961    .data               lv_dropdown.o
    0x200001c4   COMPRESSED   0x00000004   Data   RW         5150    .data               lv_img.o
    0x200001c8   COMPRESSED   0x00000024   Data   RW         5308    .data               lv_keyboard.o
    0x200001ec   COMPRESSED   0x00000004   Data   RW         5337    .data               lv_label.o
    0x200001f0   COMPRESSED   0x00000010   Data   RW         5540    .data               lv_list.o
    0x20000200   COMPRESSED   0x00000004   Data   RW         5591    .data               lv_msgbox.o
    0x20000204   COMPRESSED   0x00000008   Data   RW         5686    .data               lv_page.o
    0x2000020c   COMPRESSED   0x0000000c   Data   RW         5767    .data               lv_roller.o
    0x20000218   COMPRESSED   0x00000008   Data   RW         5793    .data               lv_slider.o
    0x20000220   COMPRESSED   0x00000008   Data   RW         5819    .data               lv_spinbox.o
    0x20000228   COMPRESSED   0x00000008   Data   RW         5896    .data               lv_switch.o
    0x20000230   COMPRESSED   0x00000010   Data   RW         5985    .data               lv_tabview.o
    0x20000240   COMPRESSED   0x00000014   Data   RW         6044    .data               lv_textarea.o
    0x20000254   COMPRESSED   0x00000008   Data   RW         6474    .data               lv_port_indev.o
    0x2000025c   COMPRESSED   0x00000020   Data   RW         8118    .data               lv_demo_keypad_encoder.o
    0x2000027c        -       0x0000000e   Zero   RW          580    .bss                lcd.o
    0x2000028a        -       0x000000c8   Zero   RW         1108    .bss                usart.o
    0x20000352        -       0x00000100   Zero   RW         2013    .bss                lv_draw_label.o
    0x20000452   COMPRESSED   0x00000002   PAD
    0x20000454        -       0x0000016c   Zero   RW         3542    .bss                lv_gc.o
    0x200005c0        -       0x00005820   Zero   RW         3612    .bss                lv_mem.o
    0x20005de0        -       0x00000028   Zero   RW         4053    .bss                lv_theme_material.o
    0x20005e08        -       0x00000024   Zero   RW         6192    .bss                lv_port_disp.o
    0x20005e2c        -       0x0000002c   Zero   RW         8115    .bss                lv_demo_keypad_encoder.o
    0x20005e58        -       0x00000060   Zero   RW         8599    .bss                c_w.l(libspace.o)
    0x20005eb8        -       0x00000200   Zero   RW         1137    HEAP                startup_stm32f40_41xxx.o
    0x200060b8        -       0x00000800   Zero   RW         1136    STACK               startup_stm32f40_41xxx.o



  Load Region LR$$.ARM.__AT_0x68000000 (Base: 0x68000000, Size: 0x00000000, Max: 0x000bb800, ABSOLUTE)

    Execution Region ER$$.ARM.__AT_0x68000000 (Exec base: 0x68000000, Load base: 0x68000000, Size: 0x000bb800, Max: 0x000bb800, ABSOLUTE, UNINIT)

    Exec Addr    Load Addr    Size         Type   Attr      Idx    E Section Name        Object

    0x68000000        -       0x000bb800   Zero   RW         6191    .ARM.__AT_0x68000000  lv_port_disp.o


==============================================================================

Image component sizes


      Code (inc. data)   RO Data    RW Data    ZI Data      Debug   Object Name

       378          0          0          0          0       2818   24cxx.o
       596         24          0          0          0       2085   ctiic.o
       260          8          0          4          0       1477   delay.o
       812         40         10          1          0       2535   ft5206.o
      1072         78        194          1          0       4306   gt9147.o
       260         12          0          1          0        876   key.o
     19584        174       6080          4         14      22874   lcd.o
        64          4          0          0          0        523   led.o
      1570         40          8         12          0      29875   lv_anim.o
         0          0          0          0          0      26250   lv_arc.o
      1970         22          0          0          0       6876   lv_area.o
        92          4          0          0          0       2586   lv_async.o
      3238         72          0          8          0      63851   lv_bar.o
         0          0          0          0          0       1372   lv_bidi.o
      1004         64          0          8          0      15502   lv_btn.o
      6132        106         45         36          0      45352   lv_btnmatrix.o
         0          0          0          0          0       3889   lv_calendar.o
         0          0          0          0          0        866   lv_canvas.o
       876         66          0          4          0      33263   lv_checkbox.o
      1004         10          2          0          0       9009   lv_color.o
      4030         54          0          8          0      46182   lv_cont.o
       232          6         17          0          0       2545   lv_debug.o
      1848        240         13         32         44      73847   lv_demo_keypad_encoder.o
      1336         32          0          0          0      66465   lv_disp.o
         0          0          0          0          0      14512   lv_draw_arc.o
      4232          8          0          0          0      42290   lv_draw_blend.o
      2948         54         10          0          0      46054   lv_draw_img.o
      3908         54        290          8        256      34425   lv_draw_label.o
      2954          4         33          0          0      32309   lv_draw_line.o
      5652         74          0          0          0      19402   lv_draw_mask.o
      9680         10          2          0          0      42847   lv_draw_rect.o
      6420        166          0         20          0      84055   lv_dropdown.o
        80          0          0          0          0       8777   lv_font.o
         0          0          0          0          0       7188   lv_font_dejavu_16_persian_hebrew.o
      2036         76          0         16          0       9781   lv_font_fmt_txt.o
         0          0      13320         52          0       2292   lv_font_montserrat_14.o
         0          0          0          0          0      14128   lv_gauge.o
       208         68          0         24        364       6295   lv_gc.o
      1456         36          0          0          0      37852   lv_group.o
       976         32          6          4          0      34321   lv_hal_disp.o
       304         24          0          0          0      25071   lv_hal_indev.o
        76         10          0          5          0       1592   lv_hal_tick.o
      4912         52          0          4          0      39099   lv_img.o
      4008         32          0          0          0      19523   lv_img_buf.o
       636         28          0          2          0       7207   lv_img_cache.o
      2192         44          0          0          0      18729   lv_img_decoder.o
      6760         56          0          8          0      22614   lv_indev.o
      1692        120       1286         36          0       7823   lv_keyboard.o
      6832        152          0          4          0      62087   lv_label.o
      4000        108          0         16          0      57308   lv_list.o
       836          0          0          0          0       5851   lv_ll.o
       532          4        182          0          0       3351   lv_math.o
      2432         94         81         30      22560       8143   lv_mem.o
      2506         86          0          4          0      49995   lv_msgbox.o
     19916        242          2         12          0     131321   lv_obj.o
      7492        108          0          8          0      71315   lv_page.o
       124         20          0          0     768036      30404   lv_port_disp.o
       124         18          0          8          0       1442   lv_port_indev.o
      2352         10          0          0          0       8023   lv_printf.o
      2728         22          0          8          0      45620   lv_refr.o
      5080        150          0         12          0      46231   lv_roller.o
      2936         70          0          8          0      36560   lv_slider.o
      2524         62          0          8          0      22427   lv_spinbox.o
      3524         16          0          0          0      22969   lv_style.o
      1572         70          0          8          0      34671   lv_switch.o
      4920        150          0         16          0      54232   lv_tabview.o
      1156         74          0         24          0       5670   lv_task.o
      8480        250          0         20          0      68365   lv_textarea.o
      1104         52          0          4          0      40291   lv_theme.o
     22200        506         70          5         40      66345   lv_theme_material.o
      2032         32          0         32          0      12567   lv_txt.o
       212          0          0          0          0       1593   lv_utils.o
        92          6          0          0          0     290503   main.o
       224         20          0          0          0       1817   misc.o
       604         14          0          0          0       1920   myiic.o
       904         66         10          1          0       2747   ott2001a.o
       760         20          0          0          0       1920   sram.o
        64         26        392          0       2560        836   startup_stm32f40_41xxx.o
      1480         18         28          0          0       5646   stm32f4xx_fsmc.o
       660         44          0          0          0       4157   stm32f4xx_gpio.o
        26          0          0          0          0       1222   stm32f4xx_it.o
      1628         52          0         16          0      13032   stm32f4xx_rcc.o
      3234         60          0          0          0      23012   stm32f4xx_tim.o
      1108         34          0          0          0       7880   stm32f4xx_usart.o
       528         46          0         20          0       1775   system_stm32f4xx.o
       124          4          0          0          0       1348   timer.o
      4320        228        125         54          0       6861   touch.o
       328         16          0          6        200       3298   usart.o

    ----------------------------------------------------------------------
    229200       4954      22266        636     794076    2298165   Object Totals
         0          0         32          0          0          0   (incl. Generated)
        14          0         28         14          2          0   (incl. Padding)

    ----------------------------------------------------------------------

      Code (inc. data)   RO Data    RW Data    ZI Data      Debug   Library Member Name

        90          0          0          0          0          0   __dczerorl2.o
         8          0          0          0          0         68   __main.o
       104          0          0          0          0         84   __printf.o
         0          0          0          0          0          0   __rtentry.o
        12          0          0          0          0          0   __rtentry2.o
         6          0          0          0          0          0   __rtentry4.o
        52          8          0          0          0          0   __scatter.o
        28          0          0          0          0          0   __scatter_zi.o
        44          0          0          0          0        108   _printf_char.o
        48          6          0          0          0         96   _printf_char_common.o
        36          4          0          0          0         80   _printf_char_file.o
         6          0          0          0          0          0   _printf_d.o
       120         16          0          0          0         92   _printf_dec.o
        88          4         40          0          0         88   _printf_hex_int.o
       178          0          0          0          0         88   _printf_intcommon.o
         0          0          0          0          0          0   _printf_percent.o
         4          0          0          0          0          0   _printf_percent_end.o
         6          0          0          0          0          0   _printf_s.o
        82          0          0          0          0         80   _printf_str.o
         6          0          0          0          0          0   _printf_x.o
        22          0          0          0          0        100   _rserrno.o
        18          0          0          0          0         80   exit.o
         8          0          0          0          0         68   ferror.o
         6          0          0          0          0        152   heapauxi.o
         2          0          0          0          0          0   libinit.o
         6          0          0          0          0          0   libinit2.o
         2          0          0          0          0          0   libshutdown.o
         2          0          0          0          0          0   libshutdown2.o
         8          4          0          0         96         68   libspace.o
       238          0          0          0          0        100   lludivv7m.o
        88          0          0          0          0         76   memcmp.o
        24          4          0          0          0         84   noretval__2printf.o
         8          4          0          0          0         68   rt_errno_addr_intlibspace.o
       100          0          0          0          0         80   rt_memcpy_w.o
         2          0          0          0          0          0   rtexit.o
        10          0          0          0          0          0   rtexit2.o
        24          0          0          0          0         68   strcat.o
       128          0          0          0          0         68   strcmpv7m.o
        72          0          0          0          0         80   strcpy.o
        62          0          0          0          0         76   strlen.o
        74          0          0          0          0         80   sys_stackheap_outer.o
         2          0          0          0          0         68   use_no_semi.o
         2          0          0          0          0         68   use_no_semi_2.o
       826         16          0          0          0        492   daddsub_clz.o
        24          0          0          0          0        116   dcmpi.o
        90          4          0          0          0        140   dfixu.o
        84          0          0          0          0        232   dflt_clz.o
       120          4          0          0          0        140   dleqf.o
       340         12          0          0          0        152   dmul.o
       156          4          0          0          0        140   dnaninf.o
        12          0          0          0          0        116   dretinf.o
       108          0          0          0          0        128   drleqf.o
       408         56          0          0          0        168   dsqrt_umaal.o
        86          4          0          0          0        132   f2d.o
       140          4          0          0          0        132   fnaninf.o
        10          0          0          0          0        116   fpinit.o
         0          0          0          0          0          0   usenofp.o
       122          0          0          0          0        148   sqrt.o

    ----------------------------------------------------------------------
      4364        154         42          0         96       4520   Library Totals
        12          0          2          0          0          0   (incl. Padding)

    ----------------------------------------------------------------------

      Code (inc. data)   RO Data    RW Data    ZI Data      Debug   Library Name

      1826         50         40          0         96       2168   c_w.l
      2404        104          0          0          0       2204   fz_wm.l
       122          0          0          0          0        148   m_wm.l

    ----------------------------------------------------------------------
      4364        154         42          0         96       4520   Library Totals

    ----------------------------------------------------------------------

==============================================================================


      Code (inc. data)   RO Data    RW Data    ZI Data      Debug   

    233564       5108      22308        636     794172    2285941   Grand Totals
    233564       5108      22308        188     794172    2285941   ELF Image Totals (compressed)
    233564       5108      22308        188          0          0   ROM Totals

==============================================================================

    Total RO  Size (Code + RO Data)               255872 ( 249.88kB)
    Total RW  Size (RW Data + ZI Data)            794808 ( 776.18kB)
    Total ROM Size (Code + RO Data + RW Data)     256060 ( 250.06kB)

==============================================================================

